
encr.elf:     file format elf32-avr

Sections:
Idx Name          Size      VMA       LMA       File off  Algn
  0 .data         000000ba  00800100  0000241c  000024b0  2**0
                  CONTENTS, ALLOC, LOAD, DATA
  1 .text         0000241c  00000000  00000000  00000094  2**1
                  CONTENTS, ALLOC, LOAD, READONLY, CODE
  2 .bss          00000006  008001ba  008001ba  0000256a  2**0
                  ALLOC
  3 .comment      00000030  00000000  00000000  0000256a  2**0
                  CONTENTS, READONLY
  4 .note.gnu.avr.deviceinfo 00000040  00000000  00000000  0000259c  2**2
                  CONTENTS, READONLY
  5 .debug_info   000005f4  00000000  00000000  000025dc  2**0
                  CONTENTS, READONLY, DEBUGGING
  6 .debug_abbrev 000005a2  00000000  00000000  00002bd0  2**0
                  CONTENTS, READONLY, DEBUGGING
  7 .debug_line   00000133  00000000  00000000  00003172  2**0
                  CONTENTS, READONLY, DEBUGGING
  8 .debug_str    00000208  00000000  00000000  000032a5  2**0
                  CONTENTS, READONLY, DEBUGGING

Disassembly of section .text:

00000000 <__vectors>:
       0:	0c 94 9a 03 	jmp	0x734	; 0x734 <__ctors_end>
       4:	0c 94 b7 03 	jmp	0x76e	; 0x76e <__bad_interrupt>
       8:	0c 94 b7 03 	jmp	0x76e	; 0x76e <__bad_interrupt>
       c:	0c 94 b7 03 	jmp	0x76e	; 0x76e <__bad_interrupt>
      10:	0c 94 b7 03 	jmp	0x76e	; 0x76e <__bad_interrupt>
      14:	0c 94 b7 03 	jmp	0x76e	; 0x76e <__bad_interrupt>
      18:	0c 94 b7 03 	jmp	0x76e	; 0x76e <__bad_interrupt>
      1c:	0c 94 b7 03 	jmp	0x76e	; 0x76e <__bad_interrupt>
      20:	0c 94 b7 03 	jmp	0x76e	; 0x76e <__bad_interrupt>
      24:	0c 94 b7 03 	jmp	0x76e	; 0x76e <__bad_interrupt>
      28:	0c 94 b7 03 	jmp	0x76e	; 0x76e <__bad_interrupt>
      2c:	0c 94 b7 03 	jmp	0x76e	; 0x76e <__bad_interrupt>
      30:	0c 94 b7 03 	jmp	0x76e	; 0x76e <__bad_interrupt>
      34:	0c 94 b7 03 	jmp	0x76e	; 0x76e <__bad_interrupt>
      38:	0c 94 b7 03 	jmp	0x76e	; 0x76e <__bad_interrupt>
      3c:	0c 94 b7 03 	jmp	0x76e	; 0x76e <__bad_interrupt>
      40:	0c 94 b7 03 	jmp	0x76e	; 0x76e <__bad_interrupt>
      44:	0c 94 b7 03 	jmp	0x76e	; 0x76e <__bad_interrupt>
      48:	0c 94 b7 03 	jmp	0x76e	; 0x76e <__bad_interrupt>
      4c:	0c 94 b7 03 	jmp	0x76e	; 0x76e <__bad_interrupt>
      50:	0c 94 b7 03 	jmp	0x76e	; 0x76e <__bad_interrupt>
      54:	0c 94 b7 03 	jmp	0x76e	; 0x76e <__bad_interrupt>
      58:	0c 94 b7 03 	jmp	0x76e	; 0x76e <__bad_interrupt>
      5c:	0c 94 b7 03 	jmp	0x76e	; 0x76e <__bad_interrupt>
      60:	0c 94 b7 03 	jmp	0x76e	; 0x76e <__bad_interrupt>
      64:	0c 94 b7 03 	jmp	0x76e	; 0x76e <__bad_interrupt>

00000068 <__trampolines_end>:
      68:	45 6e       	ori	r20, 0xE5	; 229
      6a:	74 65       	ori	r23, 0x54	; 84
      6c:	72 20       	and	r7, r2
      6e:	41 64       	ori	r20, 0x41	; 65
      70:	6d 69       	ori	r22, 0x9D	; 157
      72:	6e 20       	and	r6, r14
      74:	50 61       	ori	r21, 0x10	; 16
      76:	73 73       	andi	r23, 0x33	; 51
      78:	77 6f       	ori	r23, 0xF7	; 247
      7a:	72 64       	ori	r23, 0x42	; 66
      7c:	3a 20       	and	r3, r10
	...

0000007f <_ZL6msc_20>:
      7f:	45 6e 74 65 72 20 41 64 6d 69 6e 20 49 44 3a 20     Enter Admin ID: 
	...

00000090 <_ZL6msc_19>:
      90:	4e 6f 74 20 61 6e 20 61 64 6d 69 6e 2e 0d 00        Not an admin...

0000009f <_ZL6msc_18>:
      9f:	50 61 73 73 77 6f 72 64 3a 20 00                    Password: .

000000aa <_ZL6msc_17>:
      aa:	55 73 65 72 20 44 61 74 61 62 61 73 65 3a 0d 00     User Database:..

000000ba <_ZL6msc_16>:
      ba:	4e 6f 74 20 61 6e 20 61 64 6d 69 6e 2e 0d 00        Not an admin...

000000c9 <_ZL6msc_15>:
      c9:	20 69 73 20 64 65 6c 65 74 65 64 2e 0d 00            is deleted...

000000d7 <_ZL6msc_14>:
      d7:	55 73 65 72 20 00                                   User .

000000dd <_ZL6msc_13>:
      dd:	45 6e 74 65 72 20 55 73 65 72 20 49 44 20 74 6f     Enter User ID to
      ed:	20 62 65 20 64 65 6c 65 74 65 64 3a 20 00            be deleted: .

000000fb <_ZL6msc_12>:
      fb:	4e 6f 74 20 61 6e 20 61 64 6d 69 6e 2e 0d 00        Not an admin...

0000010a <_ZL6msc_11>:
     10a:	45 6e 74 65 72 20 55 73 65 72 20 44 61 74 61 3a     Enter User Data:
     11a:	20 00                                                .

0000011c <_ZL6msc_10>:
     11c:	45 6e 74 65 72 20 55 73 65 72 20 50 61 73 73 77     Enter User Passw
     12c:	6f 72 64 3a 20 00                                   ord: .

00000132 <_ZL5msc_9>:
     132:	45 6e 74 65 72 20 55 73 65 72 20 44 61 74 61 3a     Enter User Data:
     142:	20 00                                                .

00000144 <_ZL5msc_8>:
     144:	45 6e 74 65 72 20 55 73 65 72 20 50 61 73 73 77     Enter User Passw
     154:	6f 72 64 3a 20 00                                   ord: .

0000015a <_ZL5msc_7>:
     15a:	55 73 65 72 20 61 6c 72 65 61 64 79 20 65 78 69     User already exi
     16a:	74 73 2e 20 4f 76 65 72 77 72 69 74 65 3f 20 28     ts. Overwrite? (
     17a:	79 29 20 2f 20 28 6e 29 3a 20 00                    y) / (n): .

00000185 <_ZL5msc_6>:
     185:	45 6e 74 65 72 20 55 73 65 72 20 49 44 20 62 65     Enter User ID be
     195:	74 77 65 65 6e 20 30 20 61 6e 64 20 36 33 3a 20     tween 0 and 63: 
	...

000001a6 <_ZL5msc_5>:
     1a6:	41 75 74 68 65 6e 74 69 63 61 74 69 6f 6e 20 46     Authentication F
     1b6:	61 69 6c 65 64 2e 0d 00                             ailed...

000001be <_ZL5msc_4>:
     1be:	41 75 74 68 65 6e 74 69 63 61 74 69 6f 6e 20 43     Authentication C
     1ce:	6f 6d 70 6c 65 74 65 2e 0d 00                       omplete...

000001d8 <_ZL5msc_3>:
     1d8:	45 6e 74 65 72 20 55 73 65 72 20 50 61 73 73 77     Enter User Passw
     1e8:	6f 72 64 3a 20 00                                   ord: .

000001ee <_ZL5msc_2>:
     1ee:	55 73 65 72 20 64 6f 65 73 20 6e 6f 74 20 65 78     User does not ex
     1fe:	69 73 74 2e 0d 00                                   ist...

00000204 <_ZL5msc_1>:
     204:	45 6e 74 65 72 20 55 73 65 72 20 49 44 3a 20 00     Enter User ID: .

00000214 <_ZL5err_2>:
     214:	54 79 70 65 20 27 68 65 6c 70 27 20 66 6f 72 20     Type 'help' for 
     224:	61 6e 20 6f 76 65 72 76 69 65 77 20 6f 66 20 61     an overview of a
     234:	6c 6c 20 74 68 65 20 63 6f 6d 6d 61 6e 64 73 2e     ll the commands.
     244:	0d 00                                               ..

00000246 <_ZL5err_1>:
     246:	27 20 69 73 20 6e 6f 74 20 72 65 63 6f 67 6e 69     ' is not recogni
     256:	7a 65 64 20 61 73 20 61 20 63 6f 6d 6d 61 6e 64     zed as a command
     266:	2e 0d 00                                            ...

00000269 <_ZL6c_help>:
     269:	54 79 70 65 20 27 6c 63 64 20 2d 2d 63 75 72 73     Type 'lcd --curs
     279:	6f 72 20 6f 6e 27 20 74 6f 20 74 75 72 6e 20 6f     or on' to turn o
     289:	6e 20 61 6e 64 20 27 6c 63 64 20 2d 2d 63 75 72     n and 'lcd --cur
     299:	73 6f 72 20 6f 66 66 27 20 74 6f 20 74 75 72 6e     sor off' to turn
     2a9:	20 6f 66 66 20 74 68 65 20 6c 63 64 20 63 75 72      off the lcd cur
     2b9:	73 6f 72 2e 0d 00                                   sor...

000002bf <_ZL6b_help>:
     2bf:	54 79 70 65 20 27 6c 63 64 20 2d 2d 62 6c 69 6e     Type 'lcd --blin
     2cf:	6b 20 6f 6e 27 20 74 6f 20 74 75 72 6e 20 6f 6e     k on' to turn on
     2df:	20 61 6e 64 20 27 6c 63 64 20 2d 2d 62 6c 69 6e      and 'lcd --blin
     2ef:	6b 20 6f 66 66 27 20 74 6f 20 74 75 72 6e 20 6f     k off' to turn o
     2ff:	66 66 20 74 68 65 20 63 75 72 73 6f 72 20 62 6c     ff the cursor bl
     30f:	69 6e 6b 2e 0d 00                                   ink...

00000315 <_ZL6l_help>:
     315:	54 79 70 65 20 27 6c 63 64 20 2d 2d 68 65 6c 70     Type 'lcd --help
     325:	27 20 6f 72 20 27 6c 63 64 20 2d 68 27 20 66 6f     ' or 'lcd -h' fo
     335:	72 20 75 73 61 67 65 20 64 65 74 61 69 6c 73 2e     r usage details.
     345:	0d 00                                               ..

00000347 <_ZL6u_help>:
     347:	54 79 70 65 20 27 75 73 65 72 20 2d 2d 68 65 6c     Type 'user --hel
     357:	70 27 20 6f 72 20 27 75 73 65 72 20 2d 68 27 20     p' or 'user -h' 
     367:	66 6f 72 20 75 73 61 67 65 20 64 65 74 61 69 6c     for usage detail
     377:	73 2e 0d 00                                         s...

0000037b <_ZL5lcd_8>:
     37b:	20 20 20 20 2d 63 20 20 20 20 2d 2d 63 75 72 73         -c    --curs
     38b:	6f 72 20 20 20 5b 6f 6e 2f 6f 66 66 5d 20 61 73     or   [on/off] as
     39b:	20 61 72 67 75 6d 65 6e 74 20 66 6f 72 20 74 68      argument for th
     3ab:	65 20 63 75 72 73 6f 72 2e 0d 00                    e cursor...

000003b6 <_ZL5lcd_7>:
     3b6:	20 20 20 20 2d 62 20 20 20 20 2d 2d 62 6c 69 6e         -b    --blin
     3c6:	6b 20 20 20 20 5b 6f 6e 2f 6f 66 66 5d 20 61 73     k    [on/off] as
     3d6:	20 61 72 67 75 6d 65 6e 74 20 66 6f 72 20 63 75      argument for cu
     3e6:	72 73 6f 72 20 62 6c 69 6e 6b 2e 0d 00              rsor blink...

000003f3 <_ZL5lcd_6>:
     3f3:	20 20 20 20 2d 6c 20 20 20 20 2d 2d 6c 69 6e 65         -l    --line
     403:	20 20 20 20 20 53 77 69 74 63 68 20 74 68 65 20          Switch the 
     413:	63 75 72 73 6f 72 20 74 6f 20 73 65 63 6f 6e 64     cursor to second
     423:	20 6c 69 6e 65 2e 0d 00                              line...

0000042b <_ZL5lcd_5>:
     42b:	20 20 20 20 2d 70 20 20 20 20 2d 2d 70 72 69 6e         -p    --prin
     43b:	74 20 20 20 20 50 72 69 6e 74 20 74 68 65 20 70     t    Print the p
     44b:	72 6f 76 69 64 65 64 20 70 68 72 61 73 65 20 6f     rovided phrase o
     45b:	6e 20 4c 43 44 20 73 63 72 65 65 6e 2e 0d 00        n LCD screen...

0000046a <_ZL5lcd_4>:
     46a:	20 20 20 20 2d 73 20 20 20 20 2d 2d 63 6c 65 61         -s    --clea
     47a:	72 20 20 20 20 43 6c 65 61 72 20 74 68 65 20 4c     r    Clear the L
     48a:	43 44 20 73 63 72 65 65 6e 2e 0d 00                 CD screen...

00000496 <_ZL5lcd_3>:
     496:	54 68 65 20 6f 70 74 69 6f 6e 73 20 61 72 65 3a     The options are:
     4a6:	0d 00                                               ..

000004a8 <_ZL5lcd_2>:
     4a8:	47 72 61 6e 74 73 20 61 63 63 65 73 73 20 74 6f     Grants access to
     4b8:	20 4c 43 44 20 68 61 72 64 77 61 72 65 2e 0d 00      LCD hardware...

000004c8 <_ZL5lcd_1>:
     4c8:	55 73 61 67 65 3a 20 6c 63 64 20 5b 2d 6f 70 74     Usage: lcd [-opt
     4d8:	69 6f 6e 28 73 29 5d 20 5b 61 72 67 75 6d 65 6e     ion(s)] [argumen
     4e8:	74 28 73 29 5d 0d 00                                t(s)]..

000004ef <_ZL6user_7>:
     4ef:	20 20 20 20 2d 73 20 20 20 20 2d 2d 73 68 6f 77         -s    --show
     4ff:	20 20 20 20 20 53 68 6f 77 20 74 68 65 20 65 6e          Show the en
     50f:	74 69 72 65 20 64 61 74 61 62 61 73 65 20 66 72     tire database fr
     51f:	6f 6d 20 45 45 50 52 4f 4d 2e 20 28 52 65 71 75     om EEPROM. (Requ
     52f:	69 72 65 73 20 61 64 6d 69 6e 20 70 72 69 76 69     ires admin privi
     53f:	6c 65 67 65 73 29 0d 00                             leges)..

00000547 <_ZL6user_6>:
     547:	20 20 20 20 2d 64 20 20 20 20 2d 2d 64 65 6c 65         -d    --dele
     557:	74 65 20 20 20 44 65 6c 65 74 65 20 74 68 65 20     te   Delete the 
     567:	70 72 6f 76 69 64 65 64 20 75 73 65 72 20 65 6e     provided user en
     577:	74 72 79 20 66 72 6f 6d 20 64 61 74 61 62 61 73     try from databas
     587:	65 2e 20 28 52 65 71 75 69 72 65 73 20 61 64 6d     e. (Requires adm
     597:	69 6e 20 70 72 69 76 69 6c 65 67 65 73 29 0d 00     in privileges)..

000005a7 <_ZL6user_5>:
     5a7:	20 20 20 20 2d 61 20 20 20 20 2d 2d 61 64 64 20         -a    --add 
     5b7:	20 20 20 20 20 41 64 64 20 61 20 75 73 65 72 20          Add a user 
     5c7:	74 6f 20 74 68 65 20 64 61 74 61 62 61 73 65 2e     to the database.
     5d7:	20 28 52 65 71 75 69 72 65 73 20 61 64 6d 69 6e      (Requires admin
     5e7:	20 70 72 69 76 69 6c 65 67 65 73 29 0d 00            privileges)..

000005f5 <_ZL6user_4>:
     5f5:	20 20 20 20 2d 6c 20 20 20 20 2d 2d 6c 6f 67 69         -l    --logi
     605:	6e 20 20 20 20 41 75 74 68 65 6e 74 69 63 61 74     n    Authenticat
     615:	65 20 74 68 65 20 75 73 65 72 20 77 69 74 68 20     e the user with 
     625:	61 6e 20 49 44 20 61 6e 64 20 50 61 73 73 77 6f     an ID and Passwo
     635:	72 64 2e 0d 00                                      rd...

0000063a <_ZL6user_3>:
     63a:	54 68 65 20 6f 70 74 69 6f 6e 73 20 61 72 65 3a     The options are:
     64a:	0d 00                                               ..

0000064c <_ZL6user_2>:
     64c:	50 65 72 66 6f 72 6d 73 20 6f 70 65 72 61 74 69     Performs operati
     65c:	6f 6e 73 20 6f 6e 20 75 73 65 72 20 64 61 74 61     ons on user data
     66c:	62 61 73 65 2e 0d 00                                base...

00000673 <_ZL6user_1>:
     673:	55 73 61 67 65 3a 20 75 73 65 72 20 5b 2d 6f 70     Usage: user [-op
     683:	74 69 6f 6e 28 73 29 5d 0d 00                       tion(s)]..

0000068d <_ZL6help_4>:
     68d:	20 20 20 20 63 6c 65 61 72 20 20 20 43 6c 65 61         clear   Clea
     69d:	72 73 20 74 68 65 20 74 65 72 6d 69 6e 61 6c 20     rs the terminal 
     6ad:	77 69 6e 64 6f 77 2e 0d 00                          window...

000006b6 <_ZL6help_3>:
     6b6:	20 20 20 20 6c 63 64 20 20 20 20 20 47 72 61 6e         lcd     Gran
     6c6:	74 73 20 61 63 63 65 73 73 20 74 6f 20 4c 43 44     ts access to LCD
     6d6:	20 68 61 72 64 77 61 72 65 2e 0d 00                  hardware...

000006e2 <_ZL6help_2>:
     6e2:	20 20 20 20 75 73 65 72 20 20 20 20 50 65 72 66         user    Perf
     6f2:	6f 72 6d 73 20 6f 70 65 72 61 74 69 6f 6e 73 20     orms operations 
     702:	6f 6e 20 75 73 65 72 20 64 61 74 61 62 61 73 65     on user database
     712:	2e 0d 00                                            ...

00000715 <_ZL6help_1>:
     715:	54 68 65 20 63 6f 6d 6d 61 6e 64 73 20 61 72 65     The commands are
     725:	3a 0d 00                                            :..

00000728 <_ZL6prompt>:
     728:	63 6d 64 40 61 76 72 3a 7e 24 20 00                 cmd@avr:~$ .

00000734 <__ctors_end>:
     734:	11 24       	eor	r1, r1
     736:	1f be       	out	0x3f, r1	; 63
     738:	cf ef       	ldi	r28, 0xFF	; 255
     73a:	d8 e0       	ldi	r29, 0x08	; 8
     73c:	de bf       	out	0x3e, r29	; 62
     73e:	cd bf       	out	0x3d, r28	; 61

00000740 <__do_copy_data>:
     740:	11 e0       	ldi	r17, 0x01	; 1
     742:	a0 e0       	ldi	r26, 0x00	; 0
     744:	b1 e0       	ldi	r27, 0x01	; 1
     746:	ec e1       	ldi	r30, 0x1C	; 28
     748:	f4 e2       	ldi	r31, 0x24	; 36
     74a:	02 c0       	rjmp	.+4      	; 0x750 <__do_copy_data+0x10>
     74c:	05 90       	lpm	r0, Z+
     74e:	0d 92       	st	X+, r0
     750:	aa 3b       	cpi	r26, 0xBA	; 186
     752:	b1 07       	cpc	r27, r17
     754:	d9 f7       	brne	.-10     	; 0x74c <__do_copy_data+0xc>

00000756 <__do_clear_bss>:
     756:	21 e0       	ldi	r18, 0x01	; 1
     758:	aa eb       	ldi	r26, 0xBA	; 186
     75a:	b1 e0       	ldi	r27, 0x01	; 1
     75c:	01 c0       	rjmp	.+2      	; 0x760 <.do_clear_bss_start>

0000075e <.do_clear_bss_loop>:
     75e:	1d 92       	st	X+, r1

00000760 <.do_clear_bss_start>:
     760:	a0 3c       	cpi	r26, 0xC0	; 192
     762:	b2 07       	cpc	r27, r18
     764:	e1 f7       	brne	.-8      	; 0x75e <.do_clear_bss_loop>
     766:	0e 94 fd 0e 	call	0x1dfa	; 0x1dfa <main>
     76a:	0c 94 0c 12 	jmp	0x2418	; 0x2418 <_exit>

0000076e <__bad_interrupt>:
     76e:	0c 94 00 00 	jmp	0	; 0x0 <__vectors>

00000772 <_ZN3CMD10User_LoginEv>:
     772:	ef 92       	push	r14
     774:	ff 92       	push	r15
     776:	0f 93       	push	r16
     778:	1f 93       	push	r17
     77a:	cf 93       	push	r28
     77c:	df 93       	push	r29
     77e:	cd b7       	in	r28, 0x3d	; 61
     780:	de b7       	in	r29, 0x3e	; 62
     782:	65 97       	sbiw	r28, 0x15	; 21
     784:	0f b6       	in	r0, 0x3f	; 63
     786:	f8 94       	cli
     788:	de bf       	out	0x3e, r29	; 62
     78a:	0f be       	out	0x3f, r0	; 63
     78c:	cd bf       	out	0x3d, r28	; 61
     78e:	04 e0       	ldi	r16, 0x04	; 4
     790:	12 e0       	ldi	r17, 0x02	; 2
     792:	53 e1       	ldi	r21, 0x13	; 19
     794:	e5 2e       	mov	r14, r21
     796:	52 e0       	ldi	r21, 0x02	; 2
     798:	f5 2e       	mov	r15, r21
     79a:	f8 01       	movw	r30, r16
     79c:	84 91       	lpm	r24, Z
     79e:	0e 94 1d 0f 	call	0x1e3a	; 0x1e3a <_ZN4UART4SendEh>
     7a2:	0f 5f       	subi	r16, 0xFF	; 255
     7a4:	1f 4f       	sbci	r17, 0xFF	; 255
     7a6:	e0 16       	cp	r14, r16
     7a8:	f1 06       	cpc	r15, r17
     7aa:	b9 f7       	brne	.-18     	; 0x79a <_ZN3CMD10User_LoginEv+0x28>
     7ac:	0e 94 c5 0f 	call	0x1f8a	; 0x1f8a <_ZN3SIO5scanfEv>
     7b0:	0e 94 53 11 	call	0x22a6	; 0x22a6 <atol>
     7b4:	62 95       	swap	r22
     7b6:	72 95       	swap	r23
     7b8:	70 7f       	andi	r23, 0xF0	; 240
     7ba:	76 27       	eor	r23, r22
     7bc:	60 7f       	andi	r22, 0xF0	; 240
     7be:	76 27       	eor	r23, r22
     7c0:	ce 01       	movw	r24, r28
     7c2:	01 96       	adiw	r24, 0x01	; 1
     7c4:	0e 94 8d 0b 	call	0x171a	; 0x171a <_ZN2DB4ReadEj>
     7c8:	89 81       	ldd	r24, Y+1	; 0x01
     7ca:	9a 81       	ldd	r25, Y+2	; 0x02
     7cc:	ab 81       	ldd	r26, Y+3	; 0x03
     7ce:	bc 81       	ldd	r27, Y+4	; 0x04
     7d0:	80 34       	cpi	r24, 0x40	; 64
     7d2:	91 05       	cpc	r25, r1
     7d4:	a1 05       	cpc	r26, r1
     7d6:	b1 05       	cpc	r27, r1
     7d8:	0c f0       	brlt	.+2      	; 0x7dc <_ZN3CMD10User_LoginEv+0x6a>
     7da:	3b c0       	rjmp	.+118    	; 0x852 <_ZN3CMD10User_LoginEv+0xe0>
     7dc:	08 ed       	ldi	r16, 0xD8	; 216
     7de:	11 e0       	ldi	r17, 0x01	; 1
     7e0:	2d ee       	ldi	r18, 0xED	; 237
     7e2:	e2 2e       	mov	r14, r18
     7e4:	21 e0       	ldi	r18, 0x01	; 1
     7e6:	f2 2e       	mov	r15, r18
     7e8:	f8 01       	movw	r30, r16
     7ea:	84 91       	lpm	r24, Z
     7ec:	0e 94 1d 0f 	call	0x1e3a	; 0x1e3a <_ZN4UART4SendEh>
     7f0:	0f 5f       	subi	r16, 0xFF	; 255
     7f2:	1f 4f       	sbci	r17, 0xFF	; 255
     7f4:	e0 16       	cp	r14, r16
     7f6:	f1 06       	cpc	r15, r17
     7f8:	b9 f7       	brne	.-18     	; 0x7e8 <_ZN3CMD10User_LoginEv+0x76>
     7fa:	0e 94 ed 0f 	call	0x1fda	; 0x1fda <_ZN3SIO6_scanfEv>
     7fe:	0e 94 53 11 	call	0x22a6	; 0x22a6 <atol>
     802:	0d 81       	ldd	r16, Y+5	; 0x05
     804:	1e 81       	ldd	r17, Y+6	; 0x06
     806:	2f 81       	ldd	r18, Y+7	; 0x07
     808:	38 85       	ldd	r19, Y+8	; 0x08
     80a:	60 17       	cp	r22, r16
     80c:	71 07       	cpc	r23, r17
     80e:	82 07       	cpc	r24, r18
     810:	93 07       	cpc	r25, r19
     812:	09 f4       	brne	.+2      	; 0x816 <_ZN3CMD10User_LoginEv+0xa4>
     814:	3a c0       	rjmp	.+116    	; 0x88a <_ZN3CMD10User_LoginEv+0x118>
     816:	06 ea       	ldi	r16, 0xA6	; 166
     818:	11 e0       	ldi	r17, 0x01	; 1
     81a:	8d eb       	ldi	r24, 0xBD	; 189
     81c:	e8 2e       	mov	r14, r24
     81e:	81 e0       	ldi	r24, 0x01	; 1
     820:	f8 2e       	mov	r15, r24
     822:	f8 01       	movw	r30, r16
     824:	84 91       	lpm	r24, Z
     826:	0e 94 1d 0f 	call	0x1e3a	; 0x1e3a <_ZN4UART4SendEh>
     82a:	0f 5f       	subi	r16, 0xFF	; 255
     82c:	1f 4f       	sbci	r17, 0xFF	; 255
     82e:	e0 16       	cp	r14, r16
     830:	f1 06       	cpc	r15, r17
     832:	b9 f7       	brne	.-18     	; 0x822 <_ZN3CMD10User_LoginEv+0xb0>
     834:	87 e0       	ldi	r24, 0x07	; 7
     836:	65 96       	adiw	r28, 0x15	; 21
     838:	0f b6       	in	r0, 0x3f	; 63
     83a:	f8 94       	cli
     83c:	de bf       	out	0x3e, r29	; 62
     83e:	0f be       	out	0x3f, r0	; 63
     840:	cd bf       	out	0x3d, r28	; 61
     842:	df 91       	pop	r29
     844:	cf 91       	pop	r28
     846:	1f 91       	pop	r17
     848:	0f 91       	pop	r16
     84a:	ff 90       	pop	r15
     84c:	ef 90       	pop	r14
     84e:	0c 94 1d 0f 	jmp	0x1e3a	; 0x1e3a <_ZN4UART4SendEh>
     852:	0e ee       	ldi	r16, 0xEE	; 238
     854:	11 e0       	ldi	r17, 0x01	; 1
     856:	33 e0       	ldi	r19, 0x03	; 3
     858:	e3 2e       	mov	r14, r19
     85a:	32 e0       	ldi	r19, 0x02	; 2
     85c:	f3 2e       	mov	r15, r19
     85e:	f8 01       	movw	r30, r16
     860:	84 91       	lpm	r24, Z
     862:	0e 94 1d 0f 	call	0x1e3a	; 0x1e3a <_ZN4UART4SendEh>
     866:	0f 5f       	subi	r16, 0xFF	; 255
     868:	1f 4f       	sbci	r17, 0xFF	; 255
     86a:	e0 16       	cp	r14, r16
     86c:	f1 06       	cpc	r15, r17
     86e:	b9 f7       	brne	.-18     	; 0x85e <_ZN3CMD10User_LoginEv+0xec>
     870:	65 96       	adiw	r28, 0x15	; 21
     872:	0f b6       	in	r0, 0x3f	; 63
     874:	f8 94       	cli
     876:	de bf       	out	0x3e, r29	; 62
     878:	0f be       	out	0x3f, r0	; 63
     87a:	cd bf       	out	0x3d, r28	; 61
     87c:	df 91       	pop	r29
     87e:	cf 91       	pop	r28
     880:	1f 91       	pop	r17
     882:	0f 91       	pop	r16
     884:	ff 90       	pop	r15
     886:	ef 90       	pop	r14
     888:	08 95       	ret
     88a:	0e eb       	ldi	r16, 0xBE	; 190
     88c:	11 e0       	ldi	r17, 0x01	; 1
     88e:	97 ed       	ldi	r25, 0xD7	; 215
     890:	e9 2e       	mov	r14, r25
     892:	91 e0       	ldi	r25, 0x01	; 1
     894:	f9 2e       	mov	r15, r25
     896:	f8 01       	movw	r30, r16
     898:	84 91       	lpm	r24, Z
     89a:	0e 94 1d 0f 	call	0x1e3a	; 0x1e3a <_ZN4UART4SendEh>
     89e:	0f 5f       	subi	r16, 0xFF	; 255
     8a0:	1f 4f       	sbci	r17, 0xFF	; 255
     8a2:	e0 16       	cp	r14, r16
     8a4:	f1 06       	cpc	r15, r17
     8a6:	b9 f7       	brne	.-18     	; 0x896 <_ZN3CMD10User_LoginEv+0x124>
     8a8:	8d b7       	in	r24, 0x3d	; 61
     8aa:	9e b7       	in	r25, 0x3e	; 62
     8ac:	45 97       	sbiw	r24, 0x15	; 21
     8ae:	0f b6       	in	r0, 0x3f	; 63
     8b0:	f8 94       	cli
     8b2:	9e bf       	out	0x3e, r25	; 62
     8b4:	0f be       	out	0x3f, r0	; 63
     8b6:	8d bf       	out	0x3d, r24	; 61
     8b8:	ad b7       	in	r26, 0x3d	; 61
     8ba:	be b7       	in	r27, 0x3e	; 62
     8bc:	11 96       	adiw	r26, 0x01	; 1
     8be:	85 e1       	ldi	r24, 0x15	; 21
     8c0:	fe 01       	movw	r30, r28
     8c2:	31 96       	adiw	r30, 0x01	; 1
     8c4:	01 90       	ld	r0, Z+
     8c6:	0d 92       	st	X+, r0
     8c8:	8a 95       	dec	r24
     8ca:	e1 f7       	brne	.-8      	; 0x8c4 <_ZN3CMD10User_LoginEv+0x152>
     8cc:	0e 94 5e 0f 	call	0x1ebc	; 0x1ebc <_ZN3SIO6printfE4User>
     8d0:	ed b7       	in	r30, 0x3d	; 61
     8d2:	fe b7       	in	r31, 0x3e	; 62
     8d4:	75 97       	sbiw	r30, 0x15	; 21
     8d6:	0f b6       	in	r0, 0x3f	; 63
     8d8:	f8 94       	cli
     8da:	fe bf       	out	0x3e, r31	; 62
     8dc:	0f be       	out	0x3f, r0	; 63
     8de:	ed bf       	out	0x3d, r30	; 61
     8e0:	ad b7       	in	r26, 0x3d	; 61
     8e2:	be b7       	in	r27, 0x3e	; 62
     8e4:	11 96       	adiw	r26, 0x01	; 1
     8e6:	85 e1       	ldi	r24, 0x15	; 21
     8e8:	fe 01       	movw	r30, r28
     8ea:	31 96       	adiw	r30, 0x01	; 1
     8ec:	01 90       	ld	r0, Z+
     8ee:	0d 92       	st	X+, r0
     8f0:	8a 95       	dec	r24
     8f2:	e1 f7       	brne	.-8      	; 0x8ec <_ZN3CMD10User_LoginEv+0x17a>
     8f4:	0e 94 33 0d 	call	0x1a66	; 0x1a66 <_ZN2DB7displayE4User>
     8f8:	0f b6       	in	r0, 0x3f	; 63
     8fa:	f8 94       	cli
     8fc:	de bf       	out	0x3e, r29	; 62
     8fe:	0f be       	out	0x3f, r0	; 63
     900:	cd bf       	out	0x3d, r28	; 61
     902:	b6 cf       	rjmp	.-148    	; 0x870 <_ZN3CMD10User_LoginEv+0xfe>

00000904 <_ZN3CMD8User_AddEv>:
     904:	2f 92       	push	r2
     906:	3f 92       	push	r3
     908:	4f 92       	push	r4
     90a:	5f 92       	push	r5
     90c:	6f 92       	push	r6
     90e:	7f 92       	push	r7
     910:	8f 92       	push	r8
     912:	9f 92       	push	r9
     914:	af 92       	push	r10
     916:	bf 92       	push	r11
     918:	cf 92       	push	r12
     91a:	df 92       	push	r13
     91c:	ef 92       	push	r14
     91e:	ff 92       	push	r15
     920:	0f 93       	push	r16
     922:	1f 93       	push	r17
     924:	cf 93       	push	r28
     926:	df 93       	push	r29
     928:	cd b7       	in	r28, 0x3d	; 61
     92a:	de b7       	in	r29, 0x3e	; 62
     92c:	e4 97       	sbiw	r28, 0x34	; 52
     92e:	0f b6       	in	r0, 0x3f	; 63
     930:	f8 94       	cli
     932:	de bf       	out	0x3e, r29	; 62
     934:	0f be       	out	0x3f, r0	; 63
     936:	cd bf       	out	0x3d, r28	; 61
     938:	0f e7       	ldi	r16, 0x7F	; 127
     93a:	10 e0       	ldi	r17, 0x00	; 0
     93c:	ef e8       	ldi	r30, 0x8F	; 143
     93e:	ee 2e       	mov	r14, r30
     940:	e0 e0       	ldi	r30, 0x00	; 0
     942:	fe 2e       	mov	r15, r30
     944:	f8 01       	movw	r30, r16
     946:	84 91       	lpm	r24, Z
     948:	0e 94 1d 0f 	call	0x1e3a	; 0x1e3a <_ZN4UART4SendEh>
     94c:	0f 5f       	subi	r16, 0xFF	; 255
     94e:	1f 4f       	sbci	r17, 0xFF	; 255
     950:	e0 16       	cp	r14, r16
     952:	f1 06       	cpc	r15, r17
     954:	b9 f7       	brne	.-18     	; 0x944 <_ZN3CMD8User_AddEv+0x40>
     956:	0e 94 c5 0f 	call	0x1f8a	; 0x1f8a <_ZN3SIO5scanfEv>
     95a:	0e 94 53 11 	call	0x22a6	; 0x22a6 <atol>
     95e:	4b 01       	movw	r8, r22
     960:	5c 01       	movw	r10, r24
     962:	08 e6       	ldi	r16, 0x68	; 104
     964:	10 e0       	ldi	r17, 0x00	; 0
     966:	7e e7       	ldi	r23, 0x7E	; 126
     968:	e7 2e       	mov	r14, r23
     96a:	70 e0       	ldi	r23, 0x00	; 0
     96c:	f7 2e       	mov	r15, r23
     96e:	f8 01       	movw	r30, r16
     970:	84 91       	lpm	r24, Z
     972:	0e 94 1d 0f 	call	0x1e3a	; 0x1e3a <_ZN4UART4SendEh>
     976:	0f 5f       	subi	r16, 0xFF	; 255
     978:	1f 4f       	sbci	r17, 0xFF	; 255
     97a:	e0 16       	cp	r14, r16
     97c:	f1 06       	cpc	r15, r17
     97e:	b9 f7       	brne	.-18     	; 0x96e <_ZN3CMD8User_AddEv+0x6a>
     980:	0e 94 ed 0f 	call	0x1fda	; 0x1fda <_ZN3SIO6_scanfEv>
     984:	0e 94 53 11 	call	0x22a6	; 0x22a6 <atol>
     988:	f2 ed       	ldi	r31, 0xD2	; 210
     98a:	8f 16       	cp	r8, r31
     98c:	f4 e0       	ldi	r31, 0x04	; 4
     98e:	9f 06       	cpc	r9, r31
     990:	a1 04       	cpc	r10, r1
     992:	b1 04       	cpc	r11, r1
     994:	41 f1       	breq	.+80     	; 0x9e6 <_ZN3CMD8User_AddEv+0xe2>
     996:	0b ef       	ldi	r16, 0xFB	; 251
     998:	10 e0       	ldi	r17, 0x00	; 0
     99a:	89 e0       	ldi	r24, 0x09	; 9
     99c:	e8 2e       	mov	r14, r24
     99e:	81 e0       	ldi	r24, 0x01	; 1
     9a0:	f8 2e       	mov	r15, r24
     9a2:	f8 01       	movw	r30, r16
     9a4:	84 91       	lpm	r24, Z
     9a6:	0e 94 1d 0f 	call	0x1e3a	; 0x1e3a <_ZN4UART4SendEh>
     9aa:	0f 5f       	subi	r16, 0xFF	; 255
     9ac:	1f 4f       	sbci	r17, 0xFF	; 255
     9ae:	e0 16       	cp	r14, r16
     9b0:	f1 06       	cpc	r15, r17
     9b2:	b9 f7       	brne	.-18     	; 0x9a2 <_ZN3CMD8User_AddEv+0x9e>
     9b4:	e4 96       	adiw	r28, 0x34	; 52
     9b6:	0f b6       	in	r0, 0x3f	; 63
     9b8:	f8 94       	cli
     9ba:	de bf       	out	0x3e, r29	; 62
     9bc:	0f be       	out	0x3f, r0	; 63
     9be:	cd bf       	out	0x3d, r28	; 61
     9c0:	df 91       	pop	r29
     9c2:	cf 91       	pop	r28
     9c4:	1f 91       	pop	r17
     9c6:	0f 91       	pop	r16
     9c8:	ff 90       	pop	r15
     9ca:	ef 90       	pop	r14
     9cc:	df 90       	pop	r13
     9ce:	cf 90       	pop	r12
     9d0:	bf 90       	pop	r11
     9d2:	af 90       	pop	r10
     9d4:	9f 90       	pop	r9
     9d6:	8f 90       	pop	r8
     9d8:	7f 90       	pop	r7
     9da:	6f 90       	pop	r6
     9dc:	5f 90       	pop	r5
     9de:	4f 90       	pop	r4
     9e0:	3f 90       	pop	r3
     9e2:	2f 90       	pop	r2
     9e4:	08 95       	ret
     9e6:	62 3d       	cpi	r22, 0xD2	; 210
     9e8:	74 40       	sbci	r23, 0x04	; 4
     9ea:	81 05       	cpc	r24, r1
     9ec:	91 05       	cpc	r25, r1
     9ee:	99 f6       	brne	.-90     	; 0x996 <_ZN3CMD8User_AddEv+0x92>
     9f0:	05 e8       	ldi	r16, 0x85	; 133
     9f2:	11 e0       	ldi	r17, 0x01	; 1
     9f4:	65 ea       	ldi	r22, 0xA5	; 165
     9f6:	e6 2e       	mov	r14, r22
     9f8:	61 e0       	ldi	r22, 0x01	; 1
     9fa:	f6 2e       	mov	r15, r22
     9fc:	f8 01       	movw	r30, r16
     9fe:	84 91       	lpm	r24, Z
     a00:	0e 94 1d 0f 	call	0x1e3a	; 0x1e3a <_ZN4UART4SendEh>
     a04:	0f 5f       	subi	r16, 0xFF	; 255
     a06:	1f 4f       	sbci	r17, 0xFF	; 255
     a08:	e0 16       	cp	r14, r16
     a0a:	f1 06       	cpc	r15, r17
     a0c:	b9 f7       	brne	.-18     	; 0x9fc <_ZN3CMD8User_AddEv+0xf8>
     a0e:	0e 94 c5 0f 	call	0x1f8a	; 0x1f8a <_ZN3SIO5scanfEv>
     a12:	0e 94 53 11 	call	0x22a6	; 0x22a6 <atol>
     a16:	4b 01       	movw	r8, r22
     a18:	5c 01       	movw	r10, r24
     a1a:	6b 01       	movw	r12, r22
     a1c:	c2 94       	swap	r12
     a1e:	d2 94       	swap	r13
     a20:	50 ef       	ldi	r21, 0xF0	; 240
     a22:	d5 22       	and	r13, r21
     a24:	dc 24       	eor	r13, r12
     a26:	c5 22       	and	r12, r21
     a28:	dc 24       	eor	r13, r12
     a2a:	b6 01       	movw	r22, r12
     a2c:	ce 01       	movw	r24, r28
     a2e:	46 96       	adiw	r24, 0x16	; 22
     a30:	0e 94 8d 0b 	call	0x171a	; 0x171a <_ZN2DB4ReadEj>
     a34:	8e 89       	ldd	r24, Y+22	; 0x16
     a36:	9f 89       	ldd	r25, Y+23	; 0x17
     a38:	a8 8d       	ldd	r26, Y+24	; 0x18
     a3a:	b9 8d       	ldd	r27, Y+25	; 0x19
     a3c:	8f 3f       	cpi	r24, 0xFF	; 255
     a3e:	91 05       	cpc	r25, r1
     a40:	a1 05       	cpc	r26, r1
     a42:	b1 05       	cpc	r27, r1
     a44:	09 f4       	brne	.+2      	; 0xa48 <_ZN3CMD8User_AddEv+0x144>
     a46:	c7 c0       	rjmp	.+398    	; 0xbd6 <_ZN3CMD8User_AddEv+0x2d2>
     a48:	4a e5       	ldi	r20, 0x5A	; 90
     a4a:	e4 2e       	mov	r14, r20
     a4c:	41 e0       	ldi	r20, 0x01	; 1
     a4e:	f4 2e       	mov	r15, r20
     a50:	04 e8       	ldi	r16, 0x84	; 132
     a52:	11 e0       	ldi	r17, 0x01	; 1
     a54:	f7 01       	movw	r30, r14
     a56:	84 91       	lpm	r24, Z
     a58:	0e 94 1d 0f 	call	0x1e3a	; 0x1e3a <_ZN4UART4SendEh>
     a5c:	ff ef       	ldi	r31, 0xFF	; 255
     a5e:	ef 1a       	sub	r14, r31
     a60:	ff 0a       	sbc	r15, r31
     a62:	0e 15       	cp	r16, r14
     a64:	1f 05       	cpc	r17, r15
     a66:	b1 f7       	brne	.-20     	; 0xa54 <_ZN3CMD8User_AddEv+0x150>
     a68:	0e 94 c5 0f 	call	0x1f8a	; 0x1f8a <_ZN3SIO5scanfEv>
     a6c:	8c 01       	movw	r16, r24
     a6e:	66 e0       	ldi	r22, 0x06	; 6
     a70:	71 e0       	ldi	r23, 0x01	; 1
     a72:	0e 94 86 11 	call	0x230c	; 0x230c <strcmp>
     a76:	7c 01       	movw	r14, r24
     a78:	68 e0       	ldi	r22, 0x08	; 8
     a7a:	71 e0       	ldi	r23, 0x01	; 1
     a7c:	c8 01       	movw	r24, r16
     a7e:	0e 94 86 11 	call	0x230c	; 0x230c <strcmp>
     a82:	3c 01       	movw	r6, r24
     a84:	6c e0       	ldi	r22, 0x0C	; 12
     a86:	71 e0       	ldi	r23, 0x01	; 1
     a88:	c8 01       	movw	r24, r16
     a8a:	0e 94 86 11 	call	0x230c	; 0x230c <strcmp>
     a8e:	2c 01       	movw	r4, r24
     a90:	6e e0       	ldi	r22, 0x0E	; 14
     a92:	71 e0       	ldi	r23, 0x01	; 1
     a94:	c8 01       	movw	r24, r16
     a96:	0e 94 86 11 	call	0x230c	; 0x230c <strcmp>
     a9a:	1c 01       	movw	r2, r24
     a9c:	62 e1       	ldi	r22, 0x12	; 18
     a9e:	71 e0       	ldi	r23, 0x01	; 1
     aa0:	c8 01       	movw	r24, r16
     aa2:	0e 94 86 11 	call	0x230c	; 0x230c <strcmp>
     aa6:	ac 01       	movw	r20, r24
     aa8:	21 e0       	ldi	r18, 0x01	; 1
     aaa:	ef 28       	or	r14, r15
     aac:	09 f0       	breq	.+2      	; 0xab0 <_ZN3CMD8User_AddEv+0x1ac>
     aae:	8d c0       	rjmp	.+282    	; 0xbca <_ZN3CMD8User_AddEv+0x2c6>
     ab0:	91 e0       	ldi	r25, 0x01	; 1
     ab2:	67 28       	or	r6, r7
     ab4:	09 f0       	breq	.+2      	; 0xab8 <_ZN3CMD8User_AddEv+0x1b4>
     ab6:	82 c0       	rjmp	.+260    	; 0xbbc <_ZN3CMD8User_AddEv+0x2b8>
     ab8:	29 2b       	or	r18, r25
     aba:	91 e0       	ldi	r25, 0x01	; 1
     abc:	45 28       	or	r4, r5
     abe:	09 f0       	breq	.+2      	; 0xac2 <_ZN3CMD8User_AddEv+0x1be>
     ac0:	76 c0       	rjmp	.+236    	; 0xbae <_ZN3CMD8User_AddEv+0x2aa>
     ac2:	29 2b       	or	r18, r25
     ac4:	91 e0       	ldi	r25, 0x01	; 1
     ac6:	23 28       	or	r2, r3
     ac8:	09 f0       	breq	.+2      	; 0xacc <_ZN3CMD8User_AddEv+0x1c8>
     aca:	6f c0       	rjmp	.+222    	; 0xbaa <_ZN3CMD8User_AddEv+0x2a6>
     acc:	92 2b       	or	r25, r18
     ace:	19 f4       	brne	.+6      	; 0xad6 <_ZN3CMD8User_AddEv+0x1d2>
     ad0:	45 2b       	or	r20, r21
     ad2:	09 f0       	breq	.+2      	; 0xad6 <_ZN3CMD8User_AddEv+0x1d2>
     ad4:	6f cf       	rjmp	.-290    	; 0x9b4 <_ZN3CMD8User_AddEv+0xb0>
     ad6:	34 e4       	ldi	r19, 0x44	; 68
     ad8:	e3 2e       	mov	r14, r19
     ada:	31 e0       	ldi	r19, 0x01	; 1
     adc:	f3 2e       	mov	r15, r19
     ade:	09 e5       	ldi	r16, 0x59	; 89
     ae0:	11 e0       	ldi	r17, 0x01	; 1
     ae2:	f7 01       	movw	r30, r14
     ae4:	84 91       	lpm	r24, Z
     ae6:	0e 94 1d 0f 	call	0x1e3a	; 0x1e3a <_ZN4UART4SendEh>
     aea:	ff ef       	ldi	r31, 0xFF	; 255
     aec:	ef 1a       	sub	r14, r31
     aee:	ff 0a       	sbc	r15, r31
     af0:	0e 15       	cp	r16, r14
     af2:	1f 05       	cpc	r17, r15
     af4:	b1 f7       	brne	.-20     	; 0xae2 <_ZN3CMD8User_AddEv+0x1de>
     af6:	0e 94 ed 0f 	call	0x1fda	; 0x1fda <_ZN3SIO6_scanfEv>
     afa:	0e 94 53 11 	call	0x22a6	; 0x22a6 <atol>
     afe:	2b 01       	movw	r4, r22
     b00:	3c 01       	movw	r6, r24
     b02:	02 e3       	ldi	r16, 0x32	; 50
     b04:	11 e0       	ldi	r17, 0x01	; 1
     b06:	f8 01       	movw	r30, r16
     b08:	84 91       	lpm	r24, Z
     b0a:	0e 94 1d 0f 	call	0x1e3a	; 0x1e3a <_ZN4UART4SendEh>
     b0e:	0f 5f       	subi	r16, 0xFF	; 255
     b10:	1f 4f       	sbci	r17, 0xFF	; 255
     b12:	f1 e0       	ldi	r31, 0x01	; 1
     b14:	03 34       	cpi	r16, 0x43	; 67
     b16:	1f 07       	cpc	r17, r31
     b18:	b1 f7       	brne	.-20     	; 0xb06 <_ZN3CMD8User_AddEv+0x202>
     b1a:	1e 01       	movw	r2, r28
     b1c:	2b e2       	ldi	r18, 0x2B	; 43
     b1e:	22 0e       	add	r2, r18
     b20:	31 1c       	adc	r3, r1
     b22:	71 01       	movw	r14, r2
     b24:	00 e0       	ldi	r16, 0x00	; 0
     b26:	10 e0       	ldi	r17, 0x00	; 0
     b28:	0e 94 16 0f 	call	0x1e2c	; 0x1e2c <_ZN4UART7ReceiveEv>
     b2c:	8d 30       	cpi	r24, 0x0D	; 13
     b2e:	09 f4       	brne	.+2      	; 0xb32 <_ZN3CMD8User_AddEv+0x22e>
     b30:	8d c0       	rjmp	.+282    	; 0xc4c <_ZN3CMD8User_AddEv+0x348>
     b32:	f7 01       	movw	r30, r14
     b34:	81 93       	st	Z+, r24
     b36:	7f 01       	movw	r14, r30
     b38:	0e 94 1d 0f 	call	0x1e3a	; 0x1e3a <_ZN4UART4SendEh>
     b3c:	0f 5f       	subi	r16, 0xFF	; 255
     b3e:	1f 4f       	sbci	r17, 0xFF	; 255
     b40:	0a 30       	cpi	r16, 0x0A	; 10
     b42:	11 05       	cpc	r17, r1
     b44:	89 f7       	brne	.-30     	; 0xb28 <_ZN3CMD8User_AddEv+0x224>
     b46:	89 82       	std	Y+1, r8	; 0x01
     b48:	9a 82       	std	Y+2, r9	; 0x02
     b4a:	ab 82       	std	Y+3, r10	; 0x03
     b4c:	bc 82       	std	Y+4, r11	; 0x04
     b4e:	4d 82       	std	Y+5, r4	; 0x05
     b50:	5e 82       	std	Y+6, r5	; 0x06
     b52:	6f 82       	std	Y+7, r6	; 0x07
     b54:	78 86       	std	Y+8, r7	; 0x08
     b56:	8a e0       	ldi	r24, 0x0A	; 10
     b58:	fe 01       	movw	r30, r28
     b5a:	bb 96       	adiw	r30, 0x2b	; 43
     b5c:	de 01       	movw	r26, r28
     b5e:	19 96       	adiw	r26, 0x09	; 9
     b60:	01 90       	ld	r0, Z+
     b62:	0d 92       	st	X+, r0
     b64:	8a 95       	dec	r24
     b66:	e1 f7       	brne	.-8      	; 0xb60 <_ZN3CMD8User_AddEv+0x25c>
     b68:	1b 8a       	std	Y+19, r1	; 0x13
     b6a:	dd 8a       	std	Y+21, r13	; 0x15
     b6c:	cc 8a       	std	Y+20, r12	; 0x14
     b6e:	86 e1       	ldi	r24, 0x16	; 22
     b70:	91 e0       	ldi	r25, 0x01	; 1
     b72:	0e 94 4f 0f 	call	0x1e9e	; 0x1e9e <_ZN3SIO6printfEPKc>
     b76:	8d b7       	in	r24, 0x3d	; 61
     b78:	9e b7       	in	r25, 0x3e	; 62
     b7a:	45 97       	sbiw	r24, 0x15	; 21
     b7c:	0f b6       	in	r0, 0x3f	; 63
     b7e:	f8 94       	cli
     b80:	9e bf       	out	0x3e, r25	; 62
     b82:	0f be       	out	0x3f, r0	; 63
     b84:	8d bf       	out	0x3d, r24	; 61
     b86:	ad b7       	in	r26, 0x3d	; 61
     b88:	be b7       	in	r27, 0x3e	; 62
     b8a:	11 96       	adiw	r26, 0x01	; 1
     b8c:	85 e1       	ldi	r24, 0x15	; 21
     b8e:	fe 01       	movw	r30, r28
     b90:	31 96       	adiw	r30, 0x01	; 1
     b92:	01 90       	ld	r0, Z+
     b94:	0d 92       	st	X+, r0
     b96:	8a 95       	dec	r24
     b98:	e1 f7       	brne	.-8      	; 0xb92 <_ZN3CMD8User_AddEv+0x28e>
     b9a:	0e 94 23 0b 	call	0x1646	; 0x1646 <_ZN2DB5WriteE4User>
     b9e:	0f b6       	in	r0, 0x3f	; 63
     ba0:	f8 94       	cli
     ba2:	de bf       	out	0x3e, r29	; 62
     ba4:	0f be       	out	0x3f, r0	; 63
     ba6:	cd bf       	out	0x3d, r28	; 61
     ba8:	05 cf       	rjmp	.-502    	; 0x9b4 <_ZN3CMD8User_AddEv+0xb0>
     baa:	90 e0       	ldi	r25, 0x00	; 0
     bac:	8f cf       	rjmp	.-226    	; 0xacc <_ZN3CMD8User_AddEv+0x1c8>
     bae:	90 e0       	ldi	r25, 0x00	; 0
     bb0:	29 2b       	or	r18, r25
     bb2:	91 e0       	ldi	r25, 0x01	; 1
     bb4:	23 28       	or	r2, r3
     bb6:	09 f4       	brne	.+2      	; 0xbba <_ZN3CMD8User_AddEv+0x2b6>
     bb8:	89 cf       	rjmp	.-238    	; 0xacc <_ZN3CMD8User_AddEv+0x1c8>
     bba:	f7 cf       	rjmp	.-18     	; 0xbaa <_ZN3CMD8User_AddEv+0x2a6>
     bbc:	90 e0       	ldi	r25, 0x00	; 0
     bbe:	29 2b       	or	r18, r25
     bc0:	91 e0       	ldi	r25, 0x01	; 1
     bc2:	45 28       	or	r4, r5
     bc4:	09 f4       	brne	.+2      	; 0xbc8 <_ZN3CMD8User_AddEv+0x2c4>
     bc6:	7d cf       	rjmp	.-262    	; 0xac2 <_ZN3CMD8User_AddEv+0x1be>
     bc8:	f2 cf       	rjmp	.-28     	; 0xbae <_ZN3CMD8User_AddEv+0x2aa>
     bca:	20 e0       	ldi	r18, 0x00	; 0
     bcc:	91 e0       	ldi	r25, 0x01	; 1
     bce:	67 28       	or	r6, r7
     bd0:	09 f4       	brne	.+2      	; 0xbd4 <_ZN3CMD8User_AddEv+0x2d0>
     bd2:	72 cf       	rjmp	.-284    	; 0xab8 <_ZN3CMD8User_AddEv+0x1b4>
     bd4:	f3 cf       	rjmp	.-26     	; 0xbbc <_ZN3CMD8User_AddEv+0x2b8>
     bd6:	2c e1       	ldi	r18, 0x1C	; 28
     bd8:	e2 2e       	mov	r14, r18
     bda:	21 e0       	ldi	r18, 0x01	; 1
     bdc:	f2 2e       	mov	r15, r18
     bde:	01 e3       	ldi	r16, 0x31	; 49
     be0:	11 e0       	ldi	r17, 0x01	; 1
     be2:	f7 01       	movw	r30, r14
     be4:	84 91       	lpm	r24, Z
     be6:	0e 94 1d 0f 	call	0x1e3a	; 0x1e3a <_ZN4UART4SendEh>
     bea:	ff ef       	ldi	r31, 0xFF	; 255
     bec:	ef 1a       	sub	r14, r31
     bee:	ff 0a       	sbc	r15, r31
     bf0:	0e 15       	cp	r16, r14
     bf2:	1f 05       	cpc	r17, r15
     bf4:	b1 f7       	brne	.-20     	; 0xbe2 <_ZN3CMD8User_AddEv+0x2de>
     bf6:	0e 94 ed 0f 	call	0x1fda	; 0x1fda <_ZN3SIO6_scanfEv>
     bfa:	0e 94 53 11 	call	0x22a6	; 0x22a6 <atol>
     bfe:	2b 01       	movw	r4, r22
     c00:	3c 01       	movw	r6, r24
     c02:	0a e0       	ldi	r16, 0x0A	; 10
     c04:	11 e0       	ldi	r17, 0x01	; 1
     c06:	9b e1       	ldi	r25, 0x1B	; 27
     c08:	e9 2e       	mov	r14, r25
     c0a:	91 e0       	ldi	r25, 0x01	; 1
     c0c:	f9 2e       	mov	r15, r25
     c0e:	f8 01       	movw	r30, r16
     c10:	84 91       	lpm	r24, Z
     c12:	0e 94 1d 0f 	call	0x1e3a	; 0x1e3a <_ZN4UART4SendEh>
     c16:	0f 5f       	subi	r16, 0xFF	; 255
     c18:	1f 4f       	sbci	r17, 0xFF	; 255
     c1a:	e0 16       	cp	r14, r16
     c1c:	f1 06       	cpc	r15, r17
     c1e:	b9 f7       	brne	.-18     	; 0xc0e <_ZN3CMD8User_AddEv+0x30a>
     c20:	1e 01       	movw	r2, r28
     c22:	fb e2       	ldi	r31, 0x2B	; 43
     c24:	2f 0e       	add	r2, r31
     c26:	31 1c       	adc	r3, r1
     c28:	71 01       	movw	r14, r2
     c2a:	00 e0       	ldi	r16, 0x00	; 0
     c2c:	10 e0       	ldi	r17, 0x00	; 0
     c2e:	0e 94 16 0f 	call	0x1e2c	; 0x1e2c <_ZN4UART7ReceiveEv>
     c32:	8d 30       	cpi	r24, 0x0D	; 13
     c34:	59 f0       	breq	.+22     	; 0xc4c <_ZN3CMD8User_AddEv+0x348>
     c36:	f7 01       	movw	r30, r14
     c38:	81 93       	st	Z+, r24
     c3a:	7f 01       	movw	r14, r30
     c3c:	0e 94 1d 0f 	call	0x1e3a	; 0x1e3a <_ZN4UART4SendEh>
     c40:	0f 5f       	subi	r16, 0xFF	; 255
     c42:	1f 4f       	sbci	r17, 0xFF	; 255
     c44:	0a 30       	cpi	r16, 0x0A	; 10
     c46:	11 05       	cpc	r17, r1
     c48:	91 f7       	brne	.-28     	; 0xc2e <_ZN3CMD8User_AddEv+0x32a>
     c4a:	7d cf       	rjmp	.-262    	; 0xb46 <_ZN3CMD8User_AddEv+0x242>
     c4c:	f1 01       	movw	r30, r2
     c4e:	e0 0f       	add	r30, r16
     c50:	f1 1f       	adc	r31, r17
     c52:	10 82       	st	Z, r1
     c54:	78 cf       	rjmp	.-272    	; 0xb46 <_ZN3CMD8User_AddEv+0x242>

00000c56 <_ZN3CMD11User_DeleteEv>:
     c56:	8f 92       	push	r8
     c58:	9f 92       	push	r9
     c5a:	af 92       	push	r10
     c5c:	bf 92       	push	r11
     c5e:	ef 92       	push	r14
     c60:	ff 92       	push	r15
     c62:	0f 93       	push	r16
     c64:	1f 93       	push	r17
     c66:	cf 93       	push	r28
     c68:	df 93       	push	r29
     c6a:	cd b7       	in	r28, 0x3d	; 61
     c6c:	de b7       	in	r29, 0x3e	; 62
     c6e:	65 97       	sbiw	r28, 0x15	; 21
     c70:	0f b6       	in	r0, 0x3f	; 63
     c72:	f8 94       	cli
     c74:	de bf       	out	0x3e, r29	; 62
     c76:	0f be       	out	0x3f, r0	; 63
     c78:	cd bf       	out	0x3d, r28	; 61
     c7a:	0f e7       	ldi	r16, 0x7F	; 127
     c7c:	10 e0       	ldi	r17, 0x00	; 0
     c7e:	6f e8       	ldi	r22, 0x8F	; 143
     c80:	e6 2e       	mov	r14, r22
     c82:	60 e0       	ldi	r22, 0x00	; 0
     c84:	f6 2e       	mov	r15, r22
     c86:	f8 01       	movw	r30, r16
     c88:	84 91       	lpm	r24, Z
     c8a:	0e 94 1d 0f 	call	0x1e3a	; 0x1e3a <_ZN4UART4SendEh>
     c8e:	0f 5f       	subi	r16, 0xFF	; 255
     c90:	1f 4f       	sbci	r17, 0xFF	; 255
     c92:	e0 16       	cp	r14, r16
     c94:	f1 06       	cpc	r15, r17
     c96:	b9 f7       	brne	.-18     	; 0xc86 <_ZN3CMD11User_DeleteEv+0x30>
     c98:	0e 94 c5 0f 	call	0x1f8a	; 0x1f8a <_ZN3SIO5scanfEv>
     c9c:	0e 94 53 11 	call	0x22a6	; 0x22a6 <atol>
     ca0:	4b 01       	movw	r8, r22
     ca2:	5c 01       	movw	r10, r24
     ca4:	08 e6       	ldi	r16, 0x68	; 104
     ca6:	10 e0       	ldi	r17, 0x00	; 0
     ca8:	5e e7       	ldi	r21, 0x7E	; 126
     caa:	e5 2e       	mov	r14, r21
     cac:	50 e0       	ldi	r21, 0x00	; 0
     cae:	f5 2e       	mov	r15, r21
     cb0:	f8 01       	movw	r30, r16
     cb2:	84 91       	lpm	r24, Z
     cb4:	0e 94 1d 0f 	call	0x1e3a	; 0x1e3a <_ZN4UART4SendEh>
     cb8:	0f 5f       	subi	r16, 0xFF	; 255
     cba:	1f 4f       	sbci	r17, 0xFF	; 255
     cbc:	e0 16       	cp	r14, r16
     cbe:	f1 06       	cpc	r15, r17
     cc0:	b9 f7       	brne	.-18     	; 0xcb0 <_ZN3CMD11User_DeleteEv+0x5a>
     cc2:	0e 94 ed 0f 	call	0x1fda	; 0x1fda <_ZN3SIO6_scanfEv>
     cc6:	0e 94 53 11 	call	0x22a6	; 0x22a6 <atol>
     cca:	f2 ed       	ldi	r31, 0xD2	; 210
     ccc:	8f 16       	cp	r8, r31
     cce:	f4 e0       	ldi	r31, 0x04	; 4
     cd0:	9f 06       	cpc	r9, r31
     cd2:	a1 04       	cpc	r10, r1
     cd4:	b1 04       	cpc	r11, r1
     cd6:	01 f1       	breq	.+64     	; 0xd18 <_ZN3CMD11User_DeleteEv+0xc2>
     cd8:	0a eb       	ldi	r16, 0xBA	; 186
     cda:	10 e0       	ldi	r17, 0x00	; 0
     cdc:	88 ec       	ldi	r24, 0xC8	; 200
     cde:	e8 2e       	mov	r14, r24
     ce0:	80 e0       	ldi	r24, 0x00	; 0
     ce2:	f8 2e       	mov	r15, r24
     ce4:	f8 01       	movw	r30, r16
     ce6:	84 91       	lpm	r24, Z
     ce8:	0e 94 1d 0f 	call	0x1e3a	; 0x1e3a <_ZN4UART4SendEh>
     cec:	0f 5f       	subi	r16, 0xFF	; 255
     cee:	1f 4f       	sbci	r17, 0xFF	; 255
     cf0:	e0 16       	cp	r14, r16
     cf2:	f1 06       	cpc	r15, r17
     cf4:	b9 f7       	brne	.-18     	; 0xce4 <_ZN3CMD11User_DeleteEv+0x8e>
     cf6:	65 96       	adiw	r28, 0x15	; 21
     cf8:	0f b6       	in	r0, 0x3f	; 63
     cfa:	f8 94       	cli
     cfc:	de bf       	out	0x3e, r29	; 62
     cfe:	0f be       	out	0x3f, r0	; 63
     d00:	cd bf       	out	0x3d, r28	; 61
     d02:	df 91       	pop	r29
     d04:	cf 91       	pop	r28
     d06:	1f 91       	pop	r17
     d08:	0f 91       	pop	r16
     d0a:	ff 90       	pop	r15
     d0c:	ef 90       	pop	r14
     d0e:	bf 90       	pop	r11
     d10:	af 90       	pop	r10
     d12:	9f 90       	pop	r9
     d14:	8f 90       	pop	r8
     d16:	08 95       	ret
     d18:	62 3d       	cpi	r22, 0xD2	; 210
     d1a:	74 40       	sbci	r23, 0x04	; 4
     d1c:	81 05       	cpc	r24, r1
     d1e:	91 05       	cpc	r25, r1
     d20:	d9 f6       	brne	.-74     	; 0xcd8 <_ZN3CMD11User_DeleteEv+0x82>
     d22:	0d ed       	ldi	r16, 0xDD	; 221
     d24:	10 e0       	ldi	r17, 0x00	; 0
     d26:	4a ef       	ldi	r20, 0xFA	; 250
     d28:	e4 2e       	mov	r14, r20
     d2a:	40 e0       	ldi	r20, 0x00	; 0
     d2c:	f4 2e       	mov	r15, r20
     d2e:	f8 01       	movw	r30, r16
     d30:	84 91       	lpm	r24, Z
     d32:	0e 94 1d 0f 	call	0x1e3a	; 0x1e3a <_ZN4UART4SendEh>
     d36:	0f 5f       	subi	r16, 0xFF	; 255
     d38:	1f 4f       	sbci	r17, 0xFF	; 255
     d3a:	e0 16       	cp	r14, r16
     d3c:	f1 06       	cpc	r15, r17
     d3e:	b9 f7       	brne	.-18     	; 0xd2e <_ZN3CMD11User_DeleteEv+0xd8>
     d40:	0e 94 c5 0f 	call	0x1f8a	; 0x1f8a <_ZN3SIO5scanfEv>
     d44:	0e 94 53 11 	call	0x22a6	; 0x22a6 <atol>
     d48:	4b 01       	movw	r8, r22
     d4a:	5c 01       	movw	r10, r24
     d4c:	8f ef       	ldi	r24, 0xFF	; 255
     d4e:	90 e0       	ldi	r25, 0x00	; 0
     d50:	a0 e0       	ldi	r26, 0x00	; 0
     d52:	b0 e0       	ldi	r27, 0x00	; 0
     d54:	89 83       	std	Y+1, r24	; 0x01
     d56:	9a 83       	std	Y+2, r25	; 0x02
     d58:	ab 83       	std	Y+3, r26	; 0x03
     d5a:	bc 83       	std	Y+4, r27	; 0x04
     d5c:	8f ef       	ldi	r24, 0xFF	; 255
     d5e:	9f ef       	ldi	r25, 0xFF	; 255
     d60:	dc 01       	movw	r26, r24
     d62:	8d 83       	std	Y+5, r24	; 0x05
     d64:	9e 83       	std	Y+6, r25	; 0x06
     d66:	af 83       	std	Y+7, r26	; 0x07
     d68:	b8 87       	std	Y+8, r27	; 0x08
     d6a:	8e e4       	ldi	r24, 0x4E	; 78
     d6c:	89 87       	std	Y+9, r24	; 0x09
     d6e:	85 e5       	ldi	r24, 0x55	; 85
     d70:	8a 87       	std	Y+10, r24	; 0x0a
     d72:	8c e4       	ldi	r24, 0x4C	; 76
     d74:	8b 87       	std	Y+11, r24	; 0x0b
     d76:	8c 87       	std	Y+12, r24	; 0x0c
     d78:	1d 86       	std	Y+13, r1	; 0x0d
     d7a:	80 91 1d 01 	lds	r24, 0x011D	; 0x80011d <__malloc_margin+0x19>
     d7e:	8e 87       	std	Y+14, r24	; 0x0e
     d80:	80 91 1e 01 	lds	r24, 0x011E	; 0x80011e <__malloc_margin+0x1a>
     d84:	8f 87       	std	Y+15, r24	; 0x0f
     d86:	80 91 1f 01 	lds	r24, 0x011F	; 0x80011f <__malloc_margin+0x1b>
     d8a:	88 8b       	std	Y+16, r24	; 0x10
     d8c:	80 91 20 01 	lds	r24, 0x0120	; 0x800120 <__malloc_margin+0x1c>
     d90:	89 8b       	std	Y+17, r24	; 0x11
     d92:	80 91 21 01 	lds	r24, 0x0121	; 0x800121 <__malloc_margin+0x1d>
     d96:	8a 8b       	std	Y+18, r24	; 0x12
     d98:	1b 8a       	std	Y+19, r1	; 0x13
     d9a:	c4 01       	movw	r24, r8
     d9c:	82 95       	swap	r24
     d9e:	92 95       	swap	r25
     da0:	90 7f       	andi	r25, 0xF0	; 240
     da2:	98 27       	eor	r25, r24
     da4:	80 7f       	andi	r24, 0xF0	; 240
     da6:	98 27       	eor	r25, r24
     da8:	9d 8b       	std	Y+21, r25	; 0x15
     daa:	8c 8b       	std	Y+20, r24	; 0x14
     dac:	8d b7       	in	r24, 0x3d	; 61
     dae:	9e b7       	in	r25, 0x3e	; 62
     db0:	45 97       	sbiw	r24, 0x15	; 21
     db2:	0f b6       	in	r0, 0x3f	; 63
     db4:	f8 94       	cli
     db6:	9e bf       	out	0x3e, r25	; 62
     db8:	0f be       	out	0x3f, r0	; 63
     dba:	8d bf       	out	0x3d, r24	; 61
     dbc:	ad b7       	in	r26, 0x3d	; 61
     dbe:	be b7       	in	r27, 0x3e	; 62
     dc0:	11 96       	adiw	r26, 0x01	; 1
     dc2:	85 e1       	ldi	r24, 0x15	; 21
     dc4:	fe 01       	movw	r30, r28
     dc6:	31 96       	adiw	r30, 0x01	; 1
     dc8:	01 90       	ld	r0, Z+
     dca:	0d 92       	st	X+, r0
     dcc:	8a 95       	dec	r24
     dce:	e1 f7       	brne	.-8      	; 0xdc8 <_ZN3CMD11User_DeleteEv+0x172>
     dd0:	0e 94 23 0b 	call	0x1646	; 0x1646 <_ZN2DB5WriteE4User>
     dd4:	07 ed       	ldi	r16, 0xD7	; 215
     dd6:	10 e0       	ldi	r17, 0x00	; 0
     dd8:	3c ed       	ldi	r19, 0xDC	; 220
     dda:	e3 2e       	mov	r14, r19
     ddc:	30 e0       	ldi	r19, 0x00	; 0
     dde:	f3 2e       	mov	r15, r19
     de0:	0f b6       	in	r0, 0x3f	; 63
     de2:	f8 94       	cli
     de4:	de bf       	out	0x3e, r29	; 62
     de6:	0f be       	out	0x3f, r0	; 63
     de8:	cd bf       	out	0x3d, r28	; 61
     dea:	f8 01       	movw	r30, r16
     dec:	84 91       	lpm	r24, Z
     dee:	0e 94 1d 0f 	call	0x1e3a	; 0x1e3a <_ZN4UART4SendEh>
     df2:	0f 5f       	subi	r16, 0xFF	; 255
     df4:	1f 4f       	sbci	r17, 0xFF	; 255
     df6:	e0 16       	cp	r14, r16
     df8:	f1 06       	cpc	r15, r17
     dfa:	b9 f7       	brne	.-18     	; 0xdea <_ZN3CMD11User_DeleteEv+0x194>
     dfc:	c5 01       	movw	r24, r10
     dfe:	b4 01       	movw	r22, r8
     e00:	0e 94 24 0f 	call	0x1e48	; 0x1e48 <_ZN3SIO6printfEl>
     e04:	09 ec       	ldi	r16, 0xC9	; 201
     e06:	10 e0       	ldi	r17, 0x00	; 0
     e08:	f8 01       	movw	r30, r16
     e0a:	84 91       	lpm	r24, Z
     e0c:	0e 94 1d 0f 	call	0x1e3a	; 0x1e3a <_ZN4UART4SendEh>
     e10:	0f 5f       	subi	r16, 0xFF	; 255
     e12:	1f 4f       	sbci	r17, 0xFF	; 255
     e14:	f0 e0       	ldi	r31, 0x00	; 0
     e16:	06 3d       	cpi	r16, 0xD6	; 214
     e18:	1f 07       	cpc	r17, r31
     e1a:	b1 f7       	brne	.-20     	; 0xe08 <_ZN3CMD11User_DeleteEv+0x1b2>
     e1c:	6c cf       	rjmp	.-296    	; 0xcf6 <_ZN3CMD11User_DeleteEv+0xa0>

00000e1e <_ZN3CMD9User_ShowEv>:
     e1e:	8f 92       	push	r8
     e20:	9f 92       	push	r9
     e22:	af 92       	push	r10
     e24:	bf 92       	push	r11
     e26:	cf 92       	push	r12
     e28:	df 92       	push	r13
     e2a:	ef 92       	push	r14
     e2c:	ff 92       	push	r15
     e2e:	0f 93       	push	r16
     e30:	1f 93       	push	r17
     e32:	cf 93       	push	r28
     e34:	df 93       	push	r29
     e36:	cd b7       	in	r28, 0x3d	; 61
     e38:	de b7       	in	r29, 0x3e	; 62
     e3a:	65 97       	sbiw	r28, 0x15	; 21
     e3c:	0f b6       	in	r0, 0x3f	; 63
     e3e:	f8 94       	cli
     e40:	de bf       	out	0x3e, r29	; 62
     e42:	0f be       	out	0x3f, r0	; 63
     e44:	cd bf       	out	0x3d, r28	; 61
     e46:	0f e7       	ldi	r16, 0x7F	; 127
     e48:	10 e0       	ldi	r17, 0x00	; 0
     e4a:	4f e8       	ldi	r20, 0x8F	; 143
     e4c:	e4 2e       	mov	r14, r20
     e4e:	40 e0       	ldi	r20, 0x00	; 0
     e50:	f4 2e       	mov	r15, r20
     e52:	f8 01       	movw	r30, r16
     e54:	84 91       	lpm	r24, Z
     e56:	0e 94 1d 0f 	call	0x1e3a	; 0x1e3a <_ZN4UART4SendEh>
     e5a:	0f 5f       	subi	r16, 0xFF	; 255
     e5c:	1f 4f       	sbci	r17, 0xFF	; 255
     e5e:	e0 16       	cp	r14, r16
     e60:	f1 06       	cpc	r15, r17
     e62:	b9 f7       	brne	.-18     	; 0xe52 <_ZN3CMD9User_ShowEv+0x34>
     e64:	0e 94 c5 0f 	call	0x1f8a	; 0x1f8a <_ZN3SIO5scanfEv>
     e68:	0e 94 53 11 	call	0x22a6	; 0x22a6 <atol>
     e6c:	4b 01       	movw	r8, r22
     e6e:	5c 01       	movw	r10, r24
     e70:	08 e6       	ldi	r16, 0x68	; 104
     e72:	10 e0       	ldi	r17, 0x00	; 0
     e74:	3e e7       	ldi	r19, 0x7E	; 126
     e76:	e3 2e       	mov	r14, r19
     e78:	30 e0       	ldi	r19, 0x00	; 0
     e7a:	f3 2e       	mov	r15, r19
     e7c:	f8 01       	movw	r30, r16
     e7e:	84 91       	lpm	r24, Z
     e80:	0e 94 1d 0f 	call	0x1e3a	; 0x1e3a <_ZN4UART4SendEh>
     e84:	0f 5f       	subi	r16, 0xFF	; 255
     e86:	1f 4f       	sbci	r17, 0xFF	; 255
     e88:	e0 16       	cp	r14, r16
     e8a:	f1 06       	cpc	r15, r17
     e8c:	b9 f7       	brne	.-18     	; 0xe7c <_ZN3CMD9User_ShowEv+0x5e>
     e8e:	0e 94 ed 0f 	call	0x1fda	; 0x1fda <_ZN3SIO6_scanfEv>
     e92:	0e 94 53 11 	call	0x22a6	; 0x22a6 <atol>
     e96:	f2 ed       	ldi	r31, 0xD2	; 210
     e98:	8f 16       	cp	r8, r31
     e9a:	f4 e0       	ldi	r31, 0x04	; 4
     e9c:	9f 06       	cpc	r9, r31
     e9e:	a1 04       	cpc	r10, r1
     ea0:	b1 04       	cpc	r11, r1
     ea2:	11 f1       	breq	.+68     	; 0xee8 <_ZN3CMD9User_ShowEv+0xca>
     ea4:	00 e9       	ldi	r16, 0x90	; 144
     ea6:	10 e0       	ldi	r17, 0x00	; 0
     ea8:	8e e9       	ldi	r24, 0x9E	; 158
     eaa:	e8 2e       	mov	r14, r24
     eac:	80 e0       	ldi	r24, 0x00	; 0
     eae:	f8 2e       	mov	r15, r24
     eb0:	f8 01       	movw	r30, r16
     eb2:	84 91       	lpm	r24, Z
     eb4:	0e 94 1d 0f 	call	0x1e3a	; 0x1e3a <_ZN4UART4SendEh>
     eb8:	0f 5f       	subi	r16, 0xFF	; 255
     eba:	1f 4f       	sbci	r17, 0xFF	; 255
     ebc:	e0 16       	cp	r14, r16
     ebe:	f1 06       	cpc	r15, r17
     ec0:	b9 f7       	brne	.-18     	; 0xeb0 <_ZN3CMD9User_ShowEv+0x92>
     ec2:	65 96       	adiw	r28, 0x15	; 21
     ec4:	0f b6       	in	r0, 0x3f	; 63
     ec6:	f8 94       	cli
     ec8:	de bf       	out	0x3e, r29	; 62
     eca:	0f be       	out	0x3f, r0	; 63
     ecc:	cd bf       	out	0x3d, r28	; 61
     ece:	df 91       	pop	r29
     ed0:	cf 91       	pop	r28
     ed2:	1f 91       	pop	r17
     ed4:	0f 91       	pop	r16
     ed6:	ff 90       	pop	r15
     ed8:	ef 90       	pop	r14
     eda:	df 90       	pop	r13
     edc:	cf 90       	pop	r12
     ede:	bf 90       	pop	r11
     ee0:	af 90       	pop	r10
     ee2:	9f 90       	pop	r9
     ee4:	8f 90       	pop	r8
     ee6:	08 95       	ret
     ee8:	62 3d       	cpi	r22, 0xD2	; 210
     eea:	74 40       	sbci	r23, 0x04	; 4
     eec:	81 05       	cpc	r24, r1
     eee:	91 05       	cpc	r25, r1
     ef0:	c9 f6       	brne	.-78     	; 0xea4 <_ZN3CMD9User_ShowEv+0x86>
     ef2:	0a ea       	ldi	r16, 0xAA	; 170
     ef4:	10 e0       	ldi	r17, 0x00	; 0
     ef6:	29 eb       	ldi	r18, 0xB9	; 185
     ef8:	e2 2e       	mov	r14, r18
     efa:	20 e0       	ldi	r18, 0x00	; 0
     efc:	f2 2e       	mov	r15, r18
     efe:	f8 01       	movw	r30, r16
     f00:	84 91       	lpm	r24, Z
     f02:	0e 94 1d 0f 	call	0x1e3a	; 0x1e3a <_ZN4UART4SendEh>
     f06:	0f 5f       	subi	r16, 0xFF	; 255
     f08:	1f 4f       	sbci	r17, 0xFF	; 255
     f0a:	e0 16       	cp	r14, r16
     f0c:	f1 06       	cpc	r15, r17
     f0e:	b9 f7       	brne	.-18     	; 0xefe <_ZN3CMD9User_ShowEv+0xe0>
     f10:	c1 2c       	mov	r12, r1
     f12:	d1 2c       	mov	r13, r1
     f14:	99 ea       	ldi	r25, 0xA9	; 169
     f16:	e9 2e       	mov	r14, r25
     f18:	90 e0       	ldi	r25, 0x00	; 0
     f1a:	f9 2e       	mov	r15, r25
     f1c:	b6 01       	movw	r22, r12
     f1e:	ce 01       	movw	r24, r28
     f20:	01 96       	adiw	r24, 0x01	; 1
     f22:	0e 94 8d 0b 	call	0x171a	; 0x171a <_ZN2DB4ReadEj>
     f26:	89 81       	ldd	r24, Y+1	; 0x01
     f28:	9a 81       	ldd	r25, Y+2	; 0x02
     f2a:	ab 81       	ldd	r26, Y+3	; 0x03
     f2c:	bc 81       	ldd	r27, Y+4	; 0x04
     f2e:	8f 3f       	cpi	r24, 0xFF	; 255
     f30:	91 05       	cpc	r25, r1
     f32:	a1 05       	cpc	r26, r1
     f34:	b1 05       	cpc	r27, r1
     f36:	91 f1       	breq	.+100    	; 0xf9c <_ZN3CMD9User_ShowEv+0x17e>
     f38:	86 e1       	ldi	r24, 0x16	; 22
     f3a:	91 e0       	ldi	r25, 0x01	; 1
     f3c:	0e 94 4f 0f 	call	0x1e9e	; 0x1e9e <_ZN3SIO6printfEPKc>
     f40:	8d b7       	in	r24, 0x3d	; 61
     f42:	9e b7       	in	r25, 0x3e	; 62
     f44:	45 97       	sbiw	r24, 0x15	; 21
     f46:	0f b6       	in	r0, 0x3f	; 63
     f48:	f8 94       	cli
     f4a:	9e bf       	out	0x3e, r25	; 62
     f4c:	0f be       	out	0x3f, r0	; 63
     f4e:	8d bf       	out	0x3d, r24	; 61
     f50:	ad b7       	in	r26, 0x3d	; 61
     f52:	be b7       	in	r27, 0x3e	; 62
     f54:	11 96       	adiw	r26, 0x01	; 1
     f56:	85 e1       	ldi	r24, 0x15	; 21
     f58:	fe 01       	movw	r30, r28
     f5a:	31 96       	adiw	r30, 0x01	; 1
     f5c:	01 90       	ld	r0, Z+
     f5e:	0d 92       	st	X+, r0
     f60:	8a 95       	dec	r24
     f62:	e1 f7       	brne	.-8      	; 0xf5c <_ZN3CMD9User_ShowEv+0x13e>
     f64:	0e 94 5e 0f 	call	0x1ebc	; 0x1ebc <_ZN3SIO6printfE4User>
     f68:	0f e9       	ldi	r16, 0x9F	; 159
     f6a:	10 e0       	ldi	r17, 0x00	; 0
     f6c:	0f b6       	in	r0, 0x3f	; 63
     f6e:	f8 94       	cli
     f70:	de bf       	out	0x3e, r29	; 62
     f72:	0f be       	out	0x3f, r0	; 63
     f74:	cd bf       	out	0x3d, r28	; 61
     f76:	f8 01       	movw	r30, r16
     f78:	84 91       	lpm	r24, Z
     f7a:	0e 94 1d 0f 	call	0x1e3a	; 0x1e3a <_ZN4UART4SendEh>
     f7e:	0f 5f       	subi	r16, 0xFF	; 255
     f80:	1f 4f       	sbci	r17, 0xFF	; 255
     f82:	e0 16       	cp	r14, r16
     f84:	f1 06       	cpc	r15, r17
     f86:	b9 f7       	brne	.-18     	; 0xf76 <_ZN3CMD9User_ShowEv+0x158>
     f88:	6d 81       	ldd	r22, Y+5	; 0x05
     f8a:	7e 81       	ldd	r23, Y+6	; 0x06
     f8c:	8f 81       	ldd	r24, Y+7	; 0x07
     f8e:	98 85       	ldd	r25, Y+8	; 0x08
     f90:	0e 94 24 0f 	call	0x1e48	; 0x1e48 <_ZN3SIO6printfEl>
     f94:	86 e1       	ldi	r24, 0x16	; 22
     f96:	91 e0       	ldi	r25, 0x01	; 1
     f98:	0e 94 4f 0f 	call	0x1e9e	; 0x1e9e <_ZN3SIO6printfEPKc>
     f9c:	f0 e1       	ldi	r31, 0x10	; 16
     f9e:	cf 0e       	add	r12, r31
     fa0:	d1 1c       	adc	r13, r1
     fa2:	c1 14       	cp	r12, r1
     fa4:	24 e0       	ldi	r18, 0x04	; 4
     fa6:	d2 06       	cpc	r13, r18
     fa8:	09 f0       	breq	.+2      	; 0xfac <_ZN3CMD9User_ShowEv+0x18e>
     faa:	b8 cf       	rjmp	.-144    	; 0xf1c <_ZN3CMD9User_ShowEv+0xfe>
     fac:	8a cf       	rjmp	.-236    	; 0xec2 <_ZN3CMD9User_ShowEv+0xa4>

00000fae <_ZN3CMD5parseEv>:
     fae:	cf 92       	push	r12
     fb0:	df 92       	push	r13
     fb2:	ef 92       	push	r14
     fb4:	ff 92       	push	r15
     fb6:	0f 93       	push	r16
     fb8:	1f 93       	push	r17
     fba:	cf 93       	push	r28
     fbc:	df 93       	push	r29
     fbe:	c8 e2       	ldi	r28, 0x28	; 40
     fc0:	d7 e0       	ldi	r29, 0x07	; 7
     fc2:	03 e3       	ldi	r16, 0x33	; 51
     fc4:	17 e0       	ldi	r17, 0x07	; 7
     fc6:	fe 01       	movw	r30, r28
     fc8:	84 91       	lpm	r24, Z
     fca:	0e 94 1d 0f 	call	0x1e3a	; 0x1e3a <_ZN4UART4SendEh>
     fce:	21 96       	adiw	r28, 0x01	; 1
     fd0:	0c 17       	cp	r16, r28
     fd2:	1d 07       	cpc	r17, r29
     fd4:	c1 f7       	brne	.-16     	; 0xfc6 <_ZN3CMD5parseEv+0x18>
     fd6:	0e 94 c5 0f 	call	0x1f8a	; 0x1f8a <_ZN3SIO5scanfEv>
     fda:	7c 01       	movw	r14, r24
     fdc:	61 eb       	ldi	r22, 0xB1	; 177
     fde:	71 e0       	ldi	r23, 0x01	; 1
     fe0:	0e 94 7a 11 	call	0x22f4	; 0x22f4 <strtok>
     fe4:	ec 01       	movw	r28, r24
     fe6:	6d e1       	ldi	r22, 0x1D	; 29
     fe8:	71 e0       	ldi	r23, 0x01	; 1
     fea:	0e 94 86 11 	call	0x230c	; 0x230c <strcmp>
     fee:	9c 01       	movw	r18, r24
     ff0:	98 81       	ld	r25, Y
     ff2:	91 11       	cpse	r25, r1
     ff4:	09 c0       	rjmp	.+18     	; 0x1008 <_ZN3CMD5parseEv+0x5a>
     ff6:	df 91       	pop	r29
     ff8:	cf 91       	pop	r28
     ffa:	1f 91       	pop	r17
     ffc:	0f 91       	pop	r16
     ffe:	ff 90       	pop	r15
    1000:	ef 90       	pop	r14
    1002:	df 90       	pop	r13
    1004:	cf 90       	pop	r12
    1006:	08 95       	ret
    1008:	23 2b       	or	r18, r19
    100a:	a9 f3       	breq	.-22     	; 0xff6 <_ZN3CMD5parseEv+0x48>
    100c:	69 e2       	ldi	r22, 0x29	; 41
    100e:	71 e0       	ldi	r23, 0x01	; 1
    1010:	ce 01       	movw	r24, r28
    1012:	0e 94 86 11 	call	0x230c	; 0x230c <strcmp>
    1016:	89 2b       	or	r24, r25
    1018:	09 f4       	brne	.+2      	; 0x101c <_ZN3CMD5parseEv+0x6e>
    101a:	4b c0       	rjmp	.+150    	; 0x10b2 <_ZN3CMD5parseEv+0x104>
    101c:	62 e2       	ldi	r22, 0x22	; 34
    101e:	71 e0       	ldi	r23, 0x01	; 1
    1020:	ce 01       	movw	r24, r28
    1022:	0e 94 86 11 	call	0x230c	; 0x230c <strcmp>
    1026:	89 2b       	or	r24, r25
    1028:	09 f4       	brne	.+2      	; 0x102c <_ZN3CMD5parseEv+0x7e>
    102a:	77 c0       	rjmp	.+238    	; 0x111a <_ZN3CMD5parseEv+0x16c>
    102c:	6b e5       	ldi	r22, 0x5B	; 91
    102e:	71 e0       	ldi	r23, 0x01	; 1
    1030:	ce 01       	movw	r24, r28
    1032:	0e 94 86 11 	call	0x230c	; 0x230c <strcmp>
    1036:	89 2b       	or	r24, r25
    1038:	09 f4       	brne	.+2      	; 0x103c <_ZN3CMD5parseEv+0x8e>
    103a:	01 c1       	rjmp	.+514    	; 0x123e <_ZN3CMD5parseEv+0x290>
    103c:	61 e6       	ldi	r22, 0x61	; 97
    103e:	71 e0       	ldi	r23, 0x01	; 1
    1040:	ce 01       	movw	r24, r28
    1042:	0e 94 86 11 	call	0x230c	; 0x230c <strcmp>
    1046:	89 2b       	or	r24, r25
    1048:	09 f4       	brne	.+2      	; 0x104c <_ZN3CMD5parseEv+0x9e>
    104a:	63 c0       	rjmp	.+198    	; 0x1112 <_ZN3CMD5parseEv+0x164>
    104c:	85 ea       	ldi	r24, 0xA5	; 165
    104e:	91 e0       	ldi	r25, 0x01	; 1
    1050:	0e 94 4f 0f 	call	0x1e9e	; 0x1e9e <_ZN3SIO6printfEPKc>
    1054:	ce 01       	movw	r24, r28
    1056:	0e 94 4f 0f 	call	0x1e9e	; 0x1e9e <_ZN3SIO6printfEPKc>
    105a:	06 e4       	ldi	r16, 0x46	; 70
    105c:	12 e0       	ldi	r17, 0x02	; 2
    105e:	98 e6       	ldi	r25, 0x68	; 104
    1060:	c9 2e       	mov	r12, r25
    1062:	92 e0       	ldi	r25, 0x02	; 2
    1064:	d9 2e       	mov	r13, r25
    1066:	f8 01       	movw	r30, r16
    1068:	84 91       	lpm	r24, Z
    106a:	0e 94 1d 0f 	call	0x1e3a	; 0x1e3a <_ZN4UART4SendEh>
    106e:	0f 5f       	subi	r16, 0xFF	; 255
    1070:	1f 4f       	sbci	r17, 0xFF	; 255
    1072:	c0 16       	cp	r12, r16
    1074:	d1 06       	cpc	r13, r17
    1076:	b9 f7       	brne	.-18     	; 0x1066 <_ZN3CMD5parseEv+0xb8>
    1078:	04 e1       	ldi	r16, 0x14	; 20
    107a:	12 e0       	ldi	r17, 0x02	; 2
    107c:	85 e4       	ldi	r24, 0x45	; 69
    107e:	c8 2e       	mov	r12, r24
    1080:	82 e0       	ldi	r24, 0x02	; 2
    1082:	d8 2e       	mov	r13, r24
    1084:	f8 01       	movw	r30, r16
    1086:	84 91       	lpm	r24, Z
    1088:	0e 94 1d 0f 	call	0x1e3a	; 0x1e3a <_ZN4UART4SendEh>
    108c:	0f 5f       	subi	r16, 0xFF	; 255
    108e:	1f 4f       	sbci	r17, 0xFF	; 255
    1090:	c0 16       	cp	r12, r16
    1092:	d1 06       	cpc	r13, r17
    1094:	b9 f7       	brne	.-18     	; 0x1084 <_ZN3CMD5parseEv+0xd6>
    1096:	ce 01       	movw	r24, r28
    1098:	0e 94 ca 10 	call	0x2194	; 0x2194 <free>
    109c:	c7 01       	movw	r24, r14
    109e:	df 91       	pop	r29
    10a0:	cf 91       	pop	r28
    10a2:	1f 91       	pop	r17
    10a4:	0f 91       	pop	r16
    10a6:	ff 90       	pop	r15
    10a8:	ef 90       	pop	r14
    10aa:	df 90       	pop	r13
    10ac:	cf 90       	pop	r12
    10ae:	0c 94 ca 10 	jmp	0x2194	; 0x2194 <free>
    10b2:	c5 e1       	ldi	r28, 0x15	; 21
    10b4:	d7 e0       	ldi	r29, 0x07	; 7
    10b6:	07 e2       	ldi	r16, 0x27	; 39
    10b8:	17 e0       	ldi	r17, 0x07	; 7
    10ba:	fe 01       	movw	r30, r28
    10bc:	84 91       	lpm	r24, Z
    10be:	0e 94 1d 0f 	call	0x1e3a	; 0x1e3a <_ZN4UART4SendEh>
    10c2:	21 96       	adiw	r28, 0x01	; 1
    10c4:	0c 17       	cp	r16, r28
    10c6:	1d 07       	cpc	r17, r29
    10c8:	c1 f7       	brne	.-16     	; 0x10ba <_ZN3CMD5parseEv+0x10c>
    10ca:	c2 ee       	ldi	r28, 0xE2	; 226
    10cc:	d6 e0       	ldi	r29, 0x06	; 6
    10ce:	04 e1       	ldi	r16, 0x14	; 20
    10d0:	17 e0       	ldi	r17, 0x07	; 7
    10d2:	fe 01       	movw	r30, r28
    10d4:	84 91       	lpm	r24, Z
    10d6:	0e 94 1d 0f 	call	0x1e3a	; 0x1e3a <_ZN4UART4SendEh>
    10da:	21 96       	adiw	r28, 0x01	; 1
    10dc:	0c 17       	cp	r16, r28
    10de:	1d 07       	cpc	r17, r29
    10e0:	c1 f7       	brne	.-16     	; 0x10d2 <_ZN3CMD5parseEv+0x124>
    10e2:	c6 eb       	ldi	r28, 0xB6	; 182
    10e4:	d6 e0       	ldi	r29, 0x06	; 6
    10e6:	01 ee       	ldi	r16, 0xE1	; 225
    10e8:	16 e0       	ldi	r17, 0x06	; 6
    10ea:	fe 01       	movw	r30, r28
    10ec:	84 91       	lpm	r24, Z
    10ee:	0e 94 1d 0f 	call	0x1e3a	; 0x1e3a <_ZN4UART4SendEh>
    10f2:	21 96       	adiw	r28, 0x01	; 1
    10f4:	0c 17       	cp	r16, r28
    10f6:	1d 07       	cpc	r17, r29
    10f8:	c1 f7       	brne	.-16     	; 0x10ea <_ZN3CMD5parseEv+0x13c>
    10fa:	cd e8       	ldi	r28, 0x8D	; 141
    10fc:	d6 e0       	ldi	r29, 0x06	; 6
    10fe:	fe 01       	movw	r30, r28
    1100:	84 91       	lpm	r24, Z
    1102:	0e 94 1d 0f 	call	0x1e3a	; 0x1e3a <_ZN4UART4SendEh>
    1106:	21 96       	adiw	r28, 0x01	; 1
    1108:	f6 e0       	ldi	r31, 0x06	; 6
    110a:	c5 3b       	cpi	r28, 0xB5	; 181
    110c:	df 07       	cpc	r29, r31
    110e:	b9 f7       	brne	.-18     	; 0x10fe <_ZN3CMD5parseEv+0x150>
    1110:	72 cf       	rjmp	.-284    	; 0xff6 <_ZN3CMD5parseEv+0x48>
    1112:	8c e0       	ldi	r24, 0x0C	; 12
    1114:	0e 94 1d 0f 	call	0x1e3a	; 0x1e3a <_ZN4UART4SendEh>
    1118:	be cf       	rjmp	.-132    	; 0x1096 <_ZN3CMD5parseEv+0xe8>
    111a:	61 eb       	ldi	r22, 0xB1	; 177
    111c:	71 e0       	ldi	r23, 0x01	; 1
    111e:	80 e0       	ldi	r24, 0x00	; 0
    1120:	90 e0       	ldi	r25, 0x00	; 0
    1122:	0e 94 7a 11 	call	0x22f4	; 0x22f4 <strtok>
    1126:	ec 01       	movw	r28, r24
    1128:	67 e2       	ldi	r22, 0x27	; 39
    112a:	71 e0       	ldi	r23, 0x01	; 1
    112c:	0e 94 86 11 	call	0x230c	; 0x230c <strcmp>
    1130:	8c 01       	movw	r16, r24
    1132:	6e e2       	ldi	r22, 0x2E	; 46
    1134:	71 e0       	ldi	r23, 0x01	; 1
    1136:	ce 01       	movw	r24, r28
    1138:	0e 94 86 11 	call	0x230c	; 0x230c <strcmp>
    113c:	01 2b       	or	r16, r17
    113e:	09 f0       	breq	.+2      	; 0x1142 <_ZN3CMD5parseEv+0x194>
    1140:	6a c0       	rjmp	.+212    	; 0x1216 <_ZN3CMD5parseEv+0x268>
    1142:	03 e7       	ldi	r16, 0x73	; 115
    1144:	16 e0       	ldi	r17, 0x06	; 6
    1146:	ec e8       	ldi	r30, 0x8C	; 140
    1148:	ce 2e       	mov	r12, r30
    114a:	e6 e0       	ldi	r30, 0x06	; 6
    114c:	de 2e       	mov	r13, r30
    114e:	f8 01       	movw	r30, r16
    1150:	84 91       	lpm	r24, Z
    1152:	0e 94 1d 0f 	call	0x1e3a	; 0x1e3a <_ZN4UART4SendEh>
    1156:	0f 5f       	subi	r16, 0xFF	; 255
    1158:	1f 4f       	sbci	r17, 0xFF	; 255
    115a:	c0 16       	cp	r12, r16
    115c:	d1 06       	cpc	r13, r17
    115e:	b9 f7       	brne	.-18     	; 0x114e <_ZN3CMD5parseEv+0x1a0>
    1160:	0c e4       	ldi	r16, 0x4C	; 76
    1162:	16 e0       	ldi	r17, 0x06	; 6
    1164:	72 e7       	ldi	r23, 0x72	; 114
    1166:	c7 2e       	mov	r12, r23
    1168:	76 e0       	ldi	r23, 0x06	; 6
    116a:	d7 2e       	mov	r13, r23
    116c:	f8 01       	movw	r30, r16
    116e:	84 91       	lpm	r24, Z
    1170:	0e 94 1d 0f 	call	0x1e3a	; 0x1e3a <_ZN4UART4SendEh>
    1174:	0f 5f       	subi	r16, 0xFF	; 255
    1176:	1f 4f       	sbci	r17, 0xFF	; 255
    1178:	c0 16       	cp	r12, r16
    117a:	d1 06       	cpc	r13, r17
    117c:	b9 f7       	brne	.-18     	; 0x116c <_ZN3CMD5parseEv+0x1be>
    117e:	0a e3       	ldi	r16, 0x3A	; 58
    1180:	16 e0       	ldi	r17, 0x06	; 6
    1182:	6b e4       	ldi	r22, 0x4B	; 75
    1184:	c6 2e       	mov	r12, r22
    1186:	66 e0       	ldi	r22, 0x06	; 6
    1188:	d6 2e       	mov	r13, r22
    118a:	f8 01       	movw	r30, r16
    118c:	84 91       	lpm	r24, Z
    118e:	0e 94 1d 0f 	call	0x1e3a	; 0x1e3a <_ZN4UART4SendEh>
    1192:	0f 5f       	subi	r16, 0xFF	; 255
    1194:	1f 4f       	sbci	r17, 0xFF	; 255
    1196:	c0 16       	cp	r12, r16
    1198:	d1 06       	cpc	r13, r17
    119a:	b9 f7       	brne	.-18     	; 0x118a <_ZN3CMD5parseEv+0x1dc>
    119c:	05 ef       	ldi	r16, 0xF5	; 245
    119e:	15 e0       	ldi	r17, 0x05	; 5
    11a0:	59 e3       	ldi	r21, 0x39	; 57
    11a2:	c5 2e       	mov	r12, r21
    11a4:	56 e0       	ldi	r21, 0x06	; 6
    11a6:	d5 2e       	mov	r13, r21
    11a8:	f8 01       	movw	r30, r16
    11aa:	84 91       	lpm	r24, Z
    11ac:	0e 94 1d 0f 	call	0x1e3a	; 0x1e3a <_ZN4UART4SendEh>
    11b0:	0f 5f       	subi	r16, 0xFF	; 255
    11b2:	1f 4f       	sbci	r17, 0xFF	; 255
    11b4:	c0 16       	cp	r12, r16
    11b6:	d1 06       	cpc	r13, r17
    11b8:	b9 f7       	brne	.-18     	; 0x11a8 <_ZN3CMD5parseEv+0x1fa>
    11ba:	07 ea       	ldi	r16, 0xA7	; 167
    11bc:	15 e0       	ldi	r17, 0x05	; 5
    11be:	44 ef       	ldi	r20, 0xF4	; 244
    11c0:	c4 2e       	mov	r12, r20
    11c2:	45 e0       	ldi	r20, 0x05	; 5
    11c4:	d4 2e       	mov	r13, r20
    11c6:	f8 01       	movw	r30, r16
    11c8:	84 91       	lpm	r24, Z
    11ca:	0e 94 1d 0f 	call	0x1e3a	; 0x1e3a <_ZN4UART4SendEh>
    11ce:	0f 5f       	subi	r16, 0xFF	; 255
    11d0:	1f 4f       	sbci	r17, 0xFF	; 255
    11d2:	c0 16       	cp	r12, r16
    11d4:	d1 06       	cpc	r13, r17
    11d6:	b9 f7       	brne	.-18     	; 0x11c6 <_ZN3CMD5parseEv+0x218>
    11d8:	07 e4       	ldi	r16, 0x47	; 71
    11da:	15 e0       	ldi	r17, 0x05	; 5
    11dc:	36 ea       	ldi	r19, 0xA6	; 166
    11de:	c3 2e       	mov	r12, r19
    11e0:	35 e0       	ldi	r19, 0x05	; 5
    11e2:	d3 2e       	mov	r13, r19
    11e4:	f8 01       	movw	r30, r16
    11e6:	84 91       	lpm	r24, Z
    11e8:	0e 94 1d 0f 	call	0x1e3a	; 0x1e3a <_ZN4UART4SendEh>
    11ec:	0f 5f       	subi	r16, 0xFF	; 255
    11ee:	1f 4f       	sbci	r17, 0xFF	; 255
    11f0:	c0 16       	cp	r12, r16
    11f2:	d1 06       	cpc	r13, r17
    11f4:	b9 f7       	brne	.-18     	; 0x11e4 <_ZN3CMD5parseEv+0x236>
    11f6:	0f ee       	ldi	r16, 0xEF	; 239
    11f8:	14 e0       	ldi	r17, 0x04	; 4
    11fa:	26 e4       	ldi	r18, 0x46	; 70
    11fc:	c2 2e       	mov	r12, r18
    11fe:	25 e0       	ldi	r18, 0x05	; 5
    1200:	d2 2e       	mov	r13, r18
    1202:	f8 01       	movw	r30, r16
    1204:	84 91       	lpm	r24, Z
    1206:	0e 94 1d 0f 	call	0x1e3a	; 0x1e3a <_ZN4UART4SendEh>
    120a:	0f 5f       	subi	r16, 0xFF	; 255
    120c:	1f 4f       	sbci	r17, 0xFF	; 255
    120e:	c0 16       	cp	r12, r16
    1210:	d1 06       	cpc	r13, r17
    1212:	b9 f7       	brne	.-18     	; 0x1202 <_ZN3CMD5parseEv+0x254>
    1214:	40 cf       	rjmp	.-384    	; 0x1096 <_ZN3CMD5parseEv+0xe8>
    1216:	89 2b       	or	r24, r25
    1218:	09 f4       	brne	.+2      	; 0x121c <_ZN3CMD5parseEv+0x26e>
    121a:	93 cf       	rjmp	.-218    	; 0x1142 <_ZN3CMD5parseEv+0x194>
    121c:	61 e3       	ldi	r22, 0x31	; 49
    121e:	71 e0       	ldi	r23, 0x01	; 1
    1220:	ce 01       	movw	r24, r28
    1222:	0e 94 86 11 	call	0x230c	; 0x230c <strcmp>
    1226:	8c 01       	movw	r16, r24
    1228:	69 e3       	ldi	r22, 0x39	; 57
    122a:	71 e0       	ldi	r23, 0x01	; 1
    122c:	ce 01       	movw	r24, r28
    122e:	0e 94 86 11 	call	0x230c	; 0x230c <strcmp>
    1232:	01 2b       	or	r16, r17
    1234:	09 f0       	breq	.+2      	; 0x1238 <_ZN3CMD5parseEv+0x28a>
    1236:	c6 c0       	rjmp	.+396    	; 0x13c4 <_ZN3CMD5parseEv+0x416>
    1238:	0e 94 b9 03 	call	0x772	; 0x772 <_ZN3CMD10User_LoginEv>
    123c:	2c cf       	rjmp	.-424    	; 0x1096 <_ZN3CMD5parseEv+0xe8>
    123e:	61 eb       	ldi	r22, 0xB1	; 177
    1240:	71 e0       	ldi	r23, 0x01	; 1
    1242:	80 e0       	ldi	r24, 0x00	; 0
    1244:	90 e0       	ldi	r25, 0x00	; 0
    1246:	0e 94 7a 11 	call	0x22f4	; 0x22f4 <strtok>
    124a:	ec 01       	movw	r28, r24
    124c:	67 e2       	ldi	r22, 0x27	; 39
    124e:	71 e0       	ldi	r23, 0x01	; 1
    1250:	0e 94 86 11 	call	0x230c	; 0x230c <strcmp>
    1254:	8c 01       	movw	r16, r24
    1256:	6e e2       	ldi	r22, 0x2E	; 46
    1258:	71 e0       	ldi	r23, 0x01	; 1
    125a:	ce 01       	movw	r24, r28
    125c:	0e 94 86 11 	call	0x230c	; 0x230c <strcmp>
    1260:	01 2b       	or	r16, r17
    1262:	09 f0       	breq	.+2      	; 0x1266 <_ZN3CMD5parseEv+0x2b8>
    1264:	79 c0       	rjmp	.+242    	; 0x1358 <_ZN3CMD5parseEv+0x3aa>
    1266:	08 ec       	ldi	r16, 0xC8	; 200
    1268:	14 e0       	ldi	r17, 0x04	; 4
    126a:	8e ee       	ldi	r24, 0xEE	; 238
    126c:	c8 2e       	mov	r12, r24
    126e:	84 e0       	ldi	r24, 0x04	; 4
    1270:	d8 2e       	mov	r13, r24
    1272:	f8 01       	movw	r30, r16
    1274:	84 91       	lpm	r24, Z
    1276:	0e 94 1d 0f 	call	0x1e3a	; 0x1e3a <_ZN4UART4SendEh>
    127a:	0f 5f       	subi	r16, 0xFF	; 255
    127c:	1f 4f       	sbci	r17, 0xFF	; 255
    127e:	c0 16       	cp	r12, r16
    1280:	d1 06       	cpc	r13, r17
    1282:	b9 f7       	brne	.-18     	; 0x1272 <_ZN3CMD5parseEv+0x2c4>
    1284:	08 ea       	ldi	r16, 0xA8	; 168
    1286:	14 e0       	ldi	r17, 0x04	; 4
    1288:	b7 ec       	ldi	r27, 0xC7	; 199
    128a:	cb 2e       	mov	r12, r27
    128c:	b4 e0       	ldi	r27, 0x04	; 4
    128e:	db 2e       	mov	r13, r27
    1290:	f8 01       	movw	r30, r16
    1292:	84 91       	lpm	r24, Z
    1294:	0e 94 1d 0f 	call	0x1e3a	; 0x1e3a <_ZN4UART4SendEh>
    1298:	0f 5f       	subi	r16, 0xFF	; 255
    129a:	1f 4f       	sbci	r17, 0xFF	; 255
    129c:	c0 16       	cp	r12, r16
    129e:	d1 06       	cpc	r13, r17
    12a0:	b9 f7       	brne	.-18     	; 0x1290 <_ZN3CMD5parseEv+0x2e2>
    12a2:	06 e9       	ldi	r16, 0x96	; 150
    12a4:	14 e0       	ldi	r17, 0x04	; 4
    12a6:	a7 ea       	ldi	r26, 0xA7	; 167
    12a8:	ca 2e       	mov	r12, r26
    12aa:	a4 e0       	ldi	r26, 0x04	; 4
    12ac:	da 2e       	mov	r13, r26
    12ae:	f8 01       	movw	r30, r16
    12b0:	84 91       	lpm	r24, Z
    12b2:	0e 94 1d 0f 	call	0x1e3a	; 0x1e3a <_ZN4UART4SendEh>
    12b6:	0f 5f       	subi	r16, 0xFF	; 255
    12b8:	1f 4f       	sbci	r17, 0xFF	; 255
    12ba:	c0 16       	cp	r12, r16
    12bc:	d1 06       	cpc	r13, r17
    12be:	b9 f7       	brne	.-18     	; 0x12ae <_ZN3CMD5parseEv+0x300>
    12c0:	0a e6       	ldi	r16, 0x6A	; 106
    12c2:	14 e0       	ldi	r17, 0x04	; 4
    12c4:	f5 e9       	ldi	r31, 0x95	; 149
    12c6:	cf 2e       	mov	r12, r31
    12c8:	f4 e0       	ldi	r31, 0x04	; 4
    12ca:	df 2e       	mov	r13, r31
    12cc:	f8 01       	movw	r30, r16
    12ce:	84 91       	lpm	r24, Z
    12d0:	0e 94 1d 0f 	call	0x1e3a	; 0x1e3a <_ZN4UART4SendEh>
    12d4:	0f 5f       	subi	r16, 0xFF	; 255
    12d6:	1f 4f       	sbci	r17, 0xFF	; 255
    12d8:	c0 16       	cp	r12, r16
    12da:	d1 06       	cpc	r13, r17
    12dc:	b9 f7       	brne	.-18     	; 0x12cc <_ZN3CMD5parseEv+0x31e>
    12de:	0b e2       	ldi	r16, 0x2B	; 43
    12e0:	14 e0       	ldi	r17, 0x04	; 4
    12e2:	e9 e6       	ldi	r30, 0x69	; 105
    12e4:	ce 2e       	mov	r12, r30
    12e6:	e4 e0       	ldi	r30, 0x04	; 4
    12e8:	de 2e       	mov	r13, r30
    12ea:	f8 01       	movw	r30, r16
    12ec:	84 91       	lpm	r24, Z
    12ee:	0e 94 1d 0f 	call	0x1e3a	; 0x1e3a <_ZN4UART4SendEh>
    12f2:	0f 5f       	subi	r16, 0xFF	; 255
    12f4:	1f 4f       	sbci	r17, 0xFF	; 255
    12f6:	c0 16       	cp	r12, r16
    12f8:	d1 06       	cpc	r13, r17
    12fa:	b9 f7       	brne	.-18     	; 0x12ea <_ZN3CMD5parseEv+0x33c>
    12fc:	03 ef       	ldi	r16, 0xF3	; 243
    12fe:	13 e0       	ldi	r17, 0x03	; 3
    1300:	7a e2       	ldi	r23, 0x2A	; 42
    1302:	c7 2e       	mov	r12, r23
    1304:	74 e0       	ldi	r23, 0x04	; 4
    1306:	d7 2e       	mov	r13, r23
    1308:	f8 01       	movw	r30, r16
    130a:	84 91       	lpm	r24, Z
    130c:	0e 94 1d 0f 	call	0x1e3a	; 0x1e3a <_ZN4UART4SendEh>
    1310:	0f 5f       	subi	r16, 0xFF	; 255
    1312:	1f 4f       	sbci	r17, 0xFF	; 255
    1314:	c0 16       	cp	r12, r16
    1316:	d1 06       	cpc	r13, r17
    1318:	b9 f7       	brne	.-18     	; 0x1308 <_ZN3CMD5parseEv+0x35a>
    131a:	06 eb       	ldi	r16, 0xB6	; 182
    131c:	13 e0       	ldi	r17, 0x03	; 3
    131e:	62 ef       	ldi	r22, 0xF2	; 242
    1320:	c6 2e       	mov	r12, r22
    1322:	63 e0       	ldi	r22, 0x03	; 3
    1324:	d6 2e       	mov	r13, r22
    1326:	f8 01       	movw	r30, r16
    1328:	84 91       	lpm	r24, Z
    132a:	0e 94 1d 0f 	call	0x1e3a	; 0x1e3a <_ZN4UART4SendEh>
    132e:	0f 5f       	subi	r16, 0xFF	; 255
    1330:	1f 4f       	sbci	r17, 0xFF	; 255
    1332:	c0 16       	cp	r12, r16
    1334:	d1 06       	cpc	r13, r17
    1336:	b9 f7       	brne	.-18     	; 0x1326 <_ZN3CMD5parseEv+0x378>
    1338:	0b e7       	ldi	r16, 0x7B	; 123
    133a:	13 e0       	ldi	r17, 0x03	; 3
    133c:	55 eb       	ldi	r21, 0xB5	; 181
    133e:	c5 2e       	mov	r12, r21
    1340:	53 e0       	ldi	r21, 0x03	; 3
    1342:	d5 2e       	mov	r13, r21
    1344:	f8 01       	movw	r30, r16
    1346:	84 91       	lpm	r24, Z
    1348:	0e 94 1d 0f 	call	0x1e3a	; 0x1e3a <_ZN4UART4SendEh>
    134c:	0f 5f       	subi	r16, 0xFF	; 255
    134e:	1f 4f       	sbci	r17, 0xFF	; 255
    1350:	c0 16       	cp	r12, r16
    1352:	d1 06       	cpc	r13, r17
    1354:	b9 f7       	brne	.-18     	; 0x1344 <_ZN3CMD5parseEv+0x396>
    1356:	9f ce       	rjmp	.-706    	; 0x1096 <_ZN3CMD5parseEv+0xe8>
    1358:	89 2b       	or	r24, r25
    135a:	09 f4       	brne	.+2      	; 0x135e <_ZN3CMD5parseEv+0x3b0>
    135c:	84 cf       	rjmp	.-248    	; 0x1266 <_ZN3CMD5parseEv+0x2b8>
    135e:	6f e5       	ldi	r22, 0x5F	; 95
    1360:	71 e0       	ldi	r23, 0x01	; 1
    1362:	ce 01       	movw	r24, r28
    1364:	0e 94 86 11 	call	0x230c	; 0x230c <strcmp>
    1368:	8c 01       	movw	r16, r24
    136a:	68 e5       	ldi	r22, 0x58	; 88
    136c:	71 e0       	ldi	r23, 0x01	; 1
    136e:	ce 01       	movw	r24, r28
    1370:	0e 94 86 11 	call	0x230c	; 0x230c <strcmp>
    1374:	01 2b       	or	r16, r17
    1376:	51 f4       	brne	.+20     	; 0x138c <_ZN3CMD5parseEv+0x3de>
    1378:	81 e0       	ldi	r24, 0x01	; 1
    137a:	0e 94 b2 0c 	call	0x1964	; 0x1964 <_ZN3LCD7commandEh>
    137e:	80 e7       	ldi	r24, 0x70	; 112
    1380:	92 e0       	ldi	r25, 0x02	; 2
    1382:	01 97       	sbiw	r24, 0x01	; 1
    1384:	f1 f7       	brne	.-4      	; 0x1382 <_ZN3CMD5parseEv+0x3d4>
    1386:	00 c0       	rjmp	.+0      	; 0x1388 <_ZN3CMD5parseEv+0x3da>
    1388:	00 00       	nop
    138a:	85 ce       	rjmp	.-758    	; 0x1096 <_ZN3CMD5parseEv+0xe8>
    138c:	89 2b       	or	r24, r25
    138e:	a1 f3       	breq	.-24     	; 0x1378 <_ZN3CMD5parseEv+0x3ca>
    1390:	67 e6       	ldi	r22, 0x67	; 103
    1392:	71 e0       	ldi	r23, 0x01	; 1
    1394:	ce 01       	movw	r24, r28
    1396:	0e 94 86 11 	call	0x230c	; 0x230c <strcmp>
    139a:	8c 01       	movw	r16, r24
    139c:	6f e6       	ldi	r22, 0x6F	; 111
    139e:	71 e0       	ldi	r23, 0x01	; 1
    13a0:	ce 01       	movw	r24, r28
    13a2:	0e 94 86 11 	call	0x230c	; 0x230c <strcmp>
    13a6:	01 2b       	or	r16, r17
    13a8:	19 f0       	breq	.+6      	; 0x13b0 <_ZN3CMD5parseEv+0x402>
    13aa:	89 2b       	or	r24, r25
    13ac:	09 f0       	breq	.+2      	; 0x13b0 <_ZN3CMD5parseEv+0x402>
    13ae:	42 c0       	rjmp	.+132    	; 0x1434 <_ZN3CMD5parseEv+0x486>
    13b0:	61 eb       	ldi	r22, 0xB1	; 177
    13b2:	71 e0       	ldi	r23, 0x01	; 1
    13b4:	80 e0       	ldi	r24, 0x00	; 0
    13b6:	90 e0       	ldi	r25, 0x00	; 0
    13b8:	0e 94 7a 11 	call	0x22f4	; 0x22f4 <strtok>
    13bc:	ec 01       	movw	r28, r24
    13be:	0e 94 da 0c 	call	0x19b4	; 0x19b4 <_ZN3LCD5printEPKc>
    13c2:	69 ce       	rjmp	.-814    	; 0x1096 <_ZN3CMD5parseEv+0xe8>
    13c4:	89 2b       	or	r24, r25
    13c6:	09 f4       	brne	.+2      	; 0x13ca <_ZN3CMD5parseEv+0x41c>
    13c8:	37 cf       	rjmp	.-402    	; 0x1238 <_ZN3CMD5parseEv+0x28a>
    13ca:	6c e3       	ldi	r22, 0x3C	; 60
    13cc:	71 e0       	ldi	r23, 0x01	; 1
    13ce:	ce 01       	movw	r24, r28
    13d0:	0e 94 86 11 	call	0x230c	; 0x230c <strcmp>
    13d4:	8c 01       	movw	r16, r24
    13d6:	62 e4       	ldi	r22, 0x42	; 66
    13d8:	71 e0       	ldi	r23, 0x01	; 1
    13da:	ce 01       	movw	r24, r28
    13dc:	0e 94 86 11 	call	0x230c	; 0x230c <strcmp>
    13e0:	01 2b       	or	r16, r17
    13e2:	19 f4       	brne	.+6      	; 0x13ea <_ZN3CMD5parseEv+0x43c>
    13e4:	0e 94 82 04 	call	0x904	; 0x904 <_ZN3CMD8User_AddEv>
    13e8:	56 ce       	rjmp	.-852    	; 0x1096 <_ZN3CMD5parseEv+0xe8>
    13ea:	89 2b       	or	r24, r25
    13ec:	d9 f3       	breq	.-10     	; 0x13e4 <_ZN3CMD5parseEv+0x436>
    13ee:	65 e4       	ldi	r22, 0x45	; 69
    13f0:	71 e0       	ldi	r23, 0x01	; 1
    13f2:	ce 01       	movw	r24, r28
    13f4:	0e 94 86 11 	call	0x230c	; 0x230c <strcmp>
    13f8:	8c 01       	movw	r16, r24
    13fa:	6e e4       	ldi	r22, 0x4E	; 78
    13fc:	71 e0       	ldi	r23, 0x01	; 1
    13fe:	ce 01       	movw	r24, r28
    1400:	0e 94 86 11 	call	0x230c	; 0x230c <strcmp>
    1404:	01 2b       	or	r16, r17
    1406:	11 f0       	breq	.+4      	; 0x140c <_ZN3CMD5parseEv+0x45e>
    1408:	89 2b       	or	r24, r25
    140a:	19 f4       	brne	.+6      	; 0x1412 <_ZN3CMD5parseEv+0x464>
    140c:	0e 94 2b 06 	call	0xc56	; 0xc56 <_ZN3CMD11User_DeleteEv>
    1410:	42 ce       	rjmp	.-892    	; 0x1096 <_ZN3CMD5parseEv+0xe8>
    1412:	61 e5       	ldi	r22, 0x51	; 81
    1414:	71 e0       	ldi	r23, 0x01	; 1
    1416:	ce 01       	movw	r24, r28
    1418:	0e 94 86 11 	call	0x230c	; 0x230c <strcmp>
    141c:	8c 01       	movw	r16, r24
    141e:	68 e5       	ldi	r22, 0x58	; 88
    1420:	71 e0       	ldi	r23, 0x01	; 1
    1422:	ce 01       	movw	r24, r28
    1424:	0e 94 86 11 	call	0x230c	; 0x230c <strcmp>
    1428:	01 2b       	or	r16, r17
    142a:	09 f0       	breq	.+2      	; 0x142e <_ZN3CMD5parseEv+0x480>
    142c:	4d c0       	rjmp	.+154    	; 0x14c8 <_ZN3CMD5parseEv+0x51a>
    142e:	0e 94 0f 07 	call	0xe1e	; 0xe1e <_ZN3CMD9User_ShowEv>
    1432:	31 ce       	rjmp	.-926    	; 0x1096 <_ZN3CMD5parseEv+0xe8>
    1434:	62 e7       	ldi	r22, 0x72	; 114
    1436:	71 e0       	ldi	r23, 0x01	; 1
    1438:	ce 01       	movw	r24, r28
    143a:	0e 94 86 11 	call	0x230c	; 0x230c <strcmp>
    143e:	8c 01       	movw	r16, r24
    1440:	69 e3       	ldi	r22, 0x39	; 57
    1442:	71 e0       	ldi	r23, 0x01	; 1
    1444:	ce 01       	movw	r24, r28
    1446:	0e 94 86 11 	call	0x230c	; 0x230c <strcmp>
    144a:	01 2b       	or	r16, r17
    144c:	21 f4       	brne	.+8      	; 0x1456 <_ZN3CMD5parseEv+0x4a8>
    144e:	80 ec       	ldi	r24, 0xC0	; 192
    1450:	0e 94 b2 0c 	call	0x1964	; 0x1964 <_ZN3LCD7commandEh>
    1454:	20 ce       	rjmp	.-960    	; 0x1096 <_ZN3CMD5parseEv+0xe8>
    1456:	89 2b       	or	r24, r25
    1458:	d1 f3       	breq	.-12     	; 0x144e <_ZN3CMD5parseEv+0x4a0>
    145a:	69 e7       	ldi	r22, 0x79	; 121
    145c:	71 e0       	ldi	r23, 0x01	; 1
    145e:	ce 01       	movw	r24, r28
    1460:	0e 94 86 11 	call	0x230c	; 0x230c <strcmp>
    1464:	8c 01       	movw	r16, r24
    1466:	61 e8       	ldi	r22, 0x81	; 129
    1468:	71 e0       	ldi	r23, 0x01	; 1
    146a:	ce 01       	movw	r24, r28
    146c:	0e 94 86 11 	call	0x230c	; 0x230c <strcmp>
    1470:	01 2b       	or	r16, r17
    1472:	09 f0       	breq	.+2      	; 0x1476 <_ZN3CMD5parseEv+0x4c8>
    1474:	3c c0       	rjmp	.+120    	; 0x14ee <_ZN3CMD5parseEv+0x540>
    1476:	61 eb       	ldi	r22, 0xB1	; 177
    1478:	71 e0       	ldi	r23, 0x01	; 1
    147a:	80 e0       	ldi	r24, 0x00	; 0
    147c:	90 e0       	ldi	r25, 0x00	; 0
    147e:	0e 94 7a 11 	call	0x22f4	; 0x22f4 <strtok>
    1482:	ec 01       	movw	r28, r24
    1484:	64 e8       	ldi	r22, 0x84	; 132
    1486:	71 e0       	ldi	r23, 0x01	; 1
    1488:	0e 94 86 11 	call	0x230c	; 0x230c <strcmp>
    148c:	6c 01       	movw	r12, r24
    148e:	67 e8       	ldi	r22, 0x87	; 135
    1490:	71 e0       	ldi	r23, 0x01	; 1
    1492:	ce 01       	movw	r24, r28
    1494:	0e 94 86 11 	call	0x230c	; 0x230c <strcmp>
    1498:	8c 01       	movw	r16, r24
    149a:	6a e8       	ldi	r22, 0x8A	; 138
    149c:	71 e0       	ldi	r23, 0x01	; 1
    149e:	ce 01       	movw	r24, r28
    14a0:	0e 94 86 11 	call	0x230c	; 0x230c <strcmp>
    14a4:	ac 01       	movw	r20, r24
    14a6:	21 e0       	ldi	r18, 0x01	; 1
    14a8:	cd 28       	or	r12, r13
    14aa:	09 f0       	breq	.+2      	; 0x14ae <_ZN3CMD5parseEv+0x500>
    14ac:	20 e0       	ldi	r18, 0x00	; 0
    14ae:	91 e0       	ldi	r25, 0x01	; 1
    14b0:	01 2b       	or	r16, r17
    14b2:	09 f0       	breq	.+2      	; 0x14b6 <_ZN3CMD5parseEv+0x508>
    14b4:	90 e0       	ldi	r25, 0x00	; 0
    14b6:	92 2b       	or	r25, r18
    14b8:	19 f4       	brne	.+6      	; 0x14c0 <_ZN3CMD5parseEv+0x512>
    14ba:	45 2b       	or	r20, r21
    14bc:	09 f0       	breq	.+2      	; 0x14c0 <_ZN3CMD5parseEv+0x512>
    14be:	83 c0       	rjmp	.+262    	; 0x15c6 <_ZN3CMD5parseEv+0x618>
    14c0:	8f e0       	ldi	r24, 0x0F	; 15
    14c2:	0e 94 b2 0c 	call	0x1964	; 0x1964 <_ZN3LCD7commandEh>
    14c6:	e7 cd       	rjmp	.-1074   	; 0x1096 <_ZN3CMD5parseEv+0xe8>
    14c8:	89 2b       	or	r24, r25
    14ca:	09 f4       	brne	.+2      	; 0x14ce <_ZN3CMD5parseEv+0x520>
    14cc:	b0 cf       	rjmp	.-160    	; 0x142e <_ZN3CMD5parseEv+0x480>
    14ce:	07 e4       	ldi	r16, 0x47	; 71
    14d0:	13 e0       	ldi	r17, 0x03	; 3
    14d2:	9a e7       	ldi	r25, 0x7A	; 122
    14d4:	c9 2e       	mov	r12, r25
    14d6:	93 e0       	ldi	r25, 0x03	; 3
    14d8:	d9 2e       	mov	r13, r25
    14da:	f8 01       	movw	r30, r16
    14dc:	84 91       	lpm	r24, Z
    14de:	0e 94 1d 0f 	call	0x1e3a	; 0x1e3a <_ZN4UART4SendEh>
    14e2:	0f 5f       	subi	r16, 0xFF	; 255
    14e4:	1f 4f       	sbci	r17, 0xFF	; 255
    14e6:	c0 16       	cp	r12, r16
    14e8:	d1 06       	cpc	r13, r17
    14ea:	b9 f7       	brne	.-18     	; 0x14da <_ZN3CMD5parseEv+0x52c>
    14ec:	d4 cd       	rjmp	.-1112   	; 0x1096 <_ZN3CMD5parseEv+0xe8>
    14ee:	89 2b       	or	r24, r25
    14f0:	09 f4       	brne	.+2      	; 0x14f4 <_ZN3CMD5parseEv+0x546>
    14f2:	c1 cf       	rjmp	.-126    	; 0x1476 <_ZN3CMD5parseEv+0x4c8>
    14f4:	69 e9       	ldi	r22, 0x99	; 153
    14f6:	71 e0       	ldi	r23, 0x01	; 1
    14f8:	ce 01       	movw	r24, r28
    14fa:	0e 94 86 11 	call	0x230c	; 0x230c <strcmp>
    14fe:	8c 01       	movw	r16, r24
    1500:	62 ea       	ldi	r22, 0xA2	; 162
    1502:	71 e0       	ldi	r23, 0x01	; 1
    1504:	ce 01       	movw	r24, r28
    1506:	0e 94 86 11 	call	0x230c	; 0x230c <strcmp>
    150a:	01 2b       	or	r16, r17
    150c:	41 f5       	brne	.+80     	; 0x155e <_ZN3CMD5parseEv+0x5b0>
    150e:	61 eb       	ldi	r22, 0xB1	; 177
    1510:	71 e0       	ldi	r23, 0x01	; 1
    1512:	80 e0       	ldi	r24, 0x00	; 0
    1514:	90 e0       	ldi	r25, 0x00	; 0
    1516:	0e 94 7a 11 	call	0x22f4	; 0x22f4 <strtok>
    151a:	ec 01       	movw	r28, r24
    151c:	64 e8       	ldi	r22, 0x84	; 132
    151e:	71 e0       	ldi	r23, 0x01	; 1
    1520:	0e 94 86 11 	call	0x230c	; 0x230c <strcmp>
    1524:	6c 01       	movw	r12, r24
    1526:	67 e8       	ldi	r22, 0x87	; 135
    1528:	71 e0       	ldi	r23, 0x01	; 1
    152a:	ce 01       	movw	r24, r28
    152c:	0e 94 86 11 	call	0x230c	; 0x230c <strcmp>
    1530:	8c 01       	movw	r16, r24
    1532:	6a e8       	ldi	r22, 0x8A	; 138
    1534:	71 e0       	ldi	r23, 0x01	; 1
    1536:	ce 01       	movw	r24, r28
    1538:	0e 94 86 11 	call	0x230c	; 0x230c <strcmp>
    153c:	ac 01       	movw	r20, r24
    153e:	21 e0       	ldi	r18, 0x01	; 1
    1540:	cd 28       	or	r12, r13
    1542:	09 f0       	breq	.+2      	; 0x1546 <_ZN3CMD5parseEv+0x598>
    1544:	20 e0       	ldi	r18, 0x00	; 0
    1546:	91 e0       	ldi	r25, 0x01	; 1
    1548:	01 2b       	or	r16, r17
    154a:	09 f0       	breq	.+2      	; 0x154e <_ZN3CMD5parseEv+0x5a0>
    154c:	90 e0       	ldi	r25, 0x00	; 0
    154e:	92 2b       	or	r25, r18
    1550:	11 f4       	brne	.+4      	; 0x1556 <_ZN3CMD5parseEv+0x5a8>
    1552:	45 2b       	or	r20, r21
    1554:	b1 f4       	brne	.+44     	; 0x1582 <_ZN3CMD5parseEv+0x5d4>
    1556:	8e e0       	ldi	r24, 0x0E	; 14
    1558:	0e 94 b2 0c 	call	0x1964	; 0x1964 <_ZN3LCD7commandEh>
    155c:	9c cd       	rjmp	.-1224   	; 0x1096 <_ZN3CMD5parseEv+0xe8>
    155e:	89 2b       	or	r24, r25
    1560:	b1 f2       	breq	.-84     	; 0x150e <_ZN3CMD5parseEv+0x560>
    1562:	05 e1       	ldi	r16, 0x15	; 21
    1564:	13 e0       	ldi	r17, 0x03	; 3
    1566:	26 e4       	ldi	r18, 0x46	; 70
    1568:	c2 2e       	mov	r12, r18
    156a:	23 e0       	ldi	r18, 0x03	; 3
    156c:	d2 2e       	mov	r13, r18
    156e:	f8 01       	movw	r30, r16
    1570:	84 91       	lpm	r24, Z
    1572:	0e 94 1d 0f 	call	0x1e3a	; 0x1e3a <_ZN4UART4SendEh>
    1576:	0f 5f       	subi	r16, 0xFF	; 255
    1578:	1f 4f       	sbci	r17, 0xFF	; 255
    157a:	c0 16       	cp	r12, r16
    157c:	d1 06       	cpc	r13, r17
    157e:	b9 f7       	brne	.-18     	; 0x156e <_ZN3CMD5parseEv+0x5c0>
    1580:	8a cd       	rjmp	.-1260   	; 0x1096 <_ZN3CMD5parseEv+0xe8>
    1582:	6d e8       	ldi	r22, 0x8D	; 141
    1584:	71 e0       	ldi	r23, 0x01	; 1
    1586:	ce 01       	movw	r24, r28
    1588:	0e 94 86 11 	call	0x230c	; 0x230c <strcmp>
    158c:	6c 01       	movw	r12, r24
    158e:	61 e9       	ldi	r22, 0x91	; 145
    1590:	71 e0       	ldi	r23, 0x01	; 1
    1592:	ce 01       	movw	r24, r28
    1594:	0e 94 86 11 	call	0x230c	; 0x230c <strcmp>
    1598:	8c 01       	movw	r16, r24
    159a:	65 e9       	ldi	r22, 0x95	; 149
    159c:	71 e0       	ldi	r23, 0x01	; 1
    159e:	ce 01       	movw	r24, r28
    15a0:	0e 94 86 11 	call	0x230c	; 0x230c <strcmp>
    15a4:	ac 01       	movw	r20, r24
    15a6:	21 e0       	ldi	r18, 0x01	; 1
    15a8:	cd 28       	or	r12, r13
    15aa:	09 f0       	breq	.+2      	; 0x15ae <_ZN3CMD5parseEv+0x600>
    15ac:	20 e0       	ldi	r18, 0x00	; 0
    15ae:	91 e0       	ldi	r25, 0x01	; 1
    15b0:	01 2b       	or	r16, r17
    15b2:	09 f0       	breq	.+2      	; 0x15b6 <_ZN3CMD5parseEv+0x608>
    15b4:	90 e0       	ldi	r25, 0x00	; 0
    15b6:	92 2b       	or	r25, r18
    15b8:	11 f4       	brne	.+4      	; 0x15be <_ZN3CMD5parseEv+0x610>
    15ba:	45 2b       	or	r20, r21
    15bc:	a1 f5       	brne	.+104    	; 0x1626 <_ZN3CMD5parseEv+0x678>
    15be:	8c e0       	ldi	r24, 0x0C	; 12
    15c0:	0e 94 b2 0c 	call	0x1964	; 0x1964 <_ZN3LCD7commandEh>
    15c4:	68 cd       	rjmp	.-1328   	; 0x1096 <_ZN3CMD5parseEv+0xe8>
    15c6:	6d e8       	ldi	r22, 0x8D	; 141
    15c8:	71 e0       	ldi	r23, 0x01	; 1
    15ca:	ce 01       	movw	r24, r28
    15cc:	0e 94 86 11 	call	0x230c	; 0x230c <strcmp>
    15d0:	6c 01       	movw	r12, r24
    15d2:	61 e9       	ldi	r22, 0x91	; 145
    15d4:	71 e0       	ldi	r23, 0x01	; 1
    15d6:	ce 01       	movw	r24, r28
    15d8:	0e 94 86 11 	call	0x230c	; 0x230c <strcmp>
    15dc:	8c 01       	movw	r16, r24
    15de:	65 e9       	ldi	r22, 0x95	; 149
    15e0:	71 e0       	ldi	r23, 0x01	; 1
    15e2:	ce 01       	movw	r24, r28
    15e4:	0e 94 86 11 	call	0x230c	; 0x230c <strcmp>
    15e8:	ac 01       	movw	r20, r24
    15ea:	21 e0       	ldi	r18, 0x01	; 1
    15ec:	cd 28       	or	r12, r13
    15ee:	09 f0       	breq	.+2      	; 0x15f2 <_ZN3CMD5parseEv+0x644>
    15f0:	20 e0       	ldi	r18, 0x00	; 0
    15f2:	91 e0       	ldi	r25, 0x01	; 1
    15f4:	01 2b       	or	r16, r17
    15f6:	09 f0       	breq	.+2      	; 0x15fa <_ZN3CMD5parseEv+0x64c>
    15f8:	90 e0       	ldi	r25, 0x00	; 0
    15fa:	92 2b       	or	r25, r18
    15fc:	09 f0       	breq	.+2      	; 0x1600 <_ZN3CMD5parseEv+0x652>
    15fe:	ab cf       	rjmp	.-170    	; 0x1556 <_ZN3CMD5parseEv+0x5a8>
    1600:	45 2b       	or	r20, r21
    1602:	09 f4       	brne	.+2      	; 0x1606 <_ZN3CMD5parseEv+0x658>
    1604:	a8 cf       	rjmp	.-176    	; 0x1556 <_ZN3CMD5parseEv+0x5a8>
    1606:	0f eb       	ldi	r16, 0xBF	; 191
    1608:	12 e0       	ldi	r17, 0x02	; 2
    160a:	44 e1       	ldi	r20, 0x14	; 20
    160c:	c4 2e       	mov	r12, r20
    160e:	43 e0       	ldi	r20, 0x03	; 3
    1610:	d4 2e       	mov	r13, r20
    1612:	f8 01       	movw	r30, r16
    1614:	84 91       	lpm	r24, Z
    1616:	0e 94 1d 0f 	call	0x1e3a	; 0x1e3a <_ZN4UART4SendEh>
    161a:	0f 5f       	subi	r16, 0xFF	; 255
    161c:	1f 4f       	sbci	r17, 0xFF	; 255
    161e:	c0 16       	cp	r12, r16
    1620:	d1 06       	cpc	r13, r17
    1622:	b9 f7       	brne	.-18     	; 0x1612 <_ZN3CMD5parseEv+0x664>
    1624:	38 cd       	rjmp	.-1424   	; 0x1096 <_ZN3CMD5parseEv+0xe8>
    1626:	09 e6       	ldi	r16, 0x69	; 105
    1628:	12 e0       	ldi	r17, 0x02	; 2
    162a:	3e eb       	ldi	r19, 0xBE	; 190
    162c:	c3 2e       	mov	r12, r19
    162e:	32 e0       	ldi	r19, 0x02	; 2
    1630:	d3 2e       	mov	r13, r19
    1632:	f8 01       	movw	r30, r16
    1634:	84 91       	lpm	r24, Z
    1636:	0e 94 1d 0f 	call	0x1e3a	; 0x1e3a <_ZN4UART4SendEh>
    163a:	0f 5f       	subi	r16, 0xFF	; 255
    163c:	1f 4f       	sbci	r17, 0xFF	; 255
    163e:	c0 16       	cp	r12, r16
    1640:	d1 06       	cpc	r13, r17
    1642:	b9 f7       	brne	.-18     	; 0x1632 <_ZN3CMD5parseEv+0x684>
    1644:	28 cd       	rjmp	.-1456   	; 0x1096 <_ZN3CMD5parseEv+0xe8>

00001646 <_ZN2DB5WriteE4User>:
    1646:	0f 93       	push	r16
    1648:	1f 93       	push	r17
    164a:	cf 93       	push	r28
    164c:	df 93       	push	r29
    164e:	cd b7       	in	r28, 0x3d	; 61
    1650:	de b7       	in	r29, 0x3e	; 62
    1652:	8a 8d       	ldd	r24, Y+26	; 0x1a
    1654:	9b 8d       	ldd	r25, Y+27	; 0x1b
    1656:	2f 81       	ldd	r18, Y+7	; 0x07
    1658:	f9 99       	sbic	0x1f, 1	; 31
    165a:	fe cf       	rjmp	.-4      	; 0x1658 <_ZN2DB5WriteE4User+0x12>
    165c:	92 bd       	out	0x22, r25	; 34
    165e:	81 bd       	out	0x21, r24	; 33
    1660:	20 bd       	out	0x20, r18	; 32
    1662:	fa 9a       	sbi	0x1f, 2	; 31
    1664:	f9 9a       	sbi	0x1f, 1	; 31
    1666:	4b 85       	ldd	r20, Y+11	; 0x0b
    1668:	5c 85       	ldd	r21, Y+12	; 0x0c
    166a:	6d 85       	ldd	r22, Y+13	; 0x0d
    166c:	7e 85       	ldd	r23, Y+14	; 0x0e
    166e:	9c 01       	movw	r18, r24
    1670:	2f 5f       	subi	r18, 0xFF	; 255
    1672:	3f 4f       	sbci	r19, 0xFF	; 255
    1674:	f9 99       	sbic	0x1f, 1	; 31
    1676:	fe cf       	rjmp	.-4      	; 0x1674 <_ZN2DB5WriteE4User+0x2e>
    1678:	32 bd       	out	0x22, r19	; 34
    167a:	21 bd       	out	0x21, r18	; 33
    167c:	40 bd       	out	0x20, r20	; 32
    167e:	fa 9a       	sbi	0x1f, 2	; 31
    1680:	f9 9a       	sbi	0x1f, 1	; 31
    1682:	05 2f       	mov	r16, r21
    1684:	16 2f       	mov	r17, r22
    1686:	27 2f       	mov	r18, r23
    1688:	33 27       	eor	r19, r19
    168a:	27 fd       	sbrc	r18, 7
    168c:	3a 95       	dec	r19
    168e:	fc 01       	movw	r30, r24
    1690:	32 96       	adiw	r30, 0x02	; 2
    1692:	f9 99       	sbic	0x1f, 1	; 31
    1694:	fe cf       	rjmp	.-4      	; 0x1692 <_ZN2DB5WriteE4User+0x4c>
    1696:	f2 bd       	out	0x22, r31	; 34
    1698:	e1 bd       	out	0x21, r30	; 33
    169a:	00 bd       	out	0x20, r16	; 32
    169c:	fa 9a       	sbi	0x1f, 2	; 31
    169e:	f9 9a       	sbi	0x1f, 1	; 31
    16a0:	8b 01       	movw	r16, r22
    16a2:	33 27       	eor	r19, r19
    16a4:	17 fd       	sbrc	r17, 7
    16a6:	30 95       	com	r19
    16a8:	23 2f       	mov	r18, r19
    16aa:	fc 01       	movw	r30, r24
    16ac:	33 96       	adiw	r30, 0x03	; 3
    16ae:	f9 99       	sbic	0x1f, 1	; 31
    16b0:	fe cf       	rjmp	.-4      	; 0x16ae <_ZN2DB5WriteE4User+0x68>
    16b2:	f2 bd       	out	0x22, r31	; 34
    16b4:	e1 bd       	out	0x21, r30	; 33
    16b6:	00 bd       	out	0x20, r16	; 32
    16b8:	fa 9a       	sbi	0x1f, 2	; 31
    16ba:	f9 9a       	sbi	0x1f, 1	; 31
    16bc:	47 2f       	mov	r20, r23
    16be:	77 27       	eor	r23, r23
    16c0:	47 fd       	sbrc	r20, 7
    16c2:	70 95       	com	r23
    16c4:	57 2f       	mov	r21, r23
    16c6:	67 2f       	mov	r22, r23
    16c8:	9c 01       	movw	r18, r24
    16ca:	2c 5f       	subi	r18, 0xFC	; 252
    16cc:	3f 4f       	sbci	r19, 0xFF	; 255
    16ce:	f9 99       	sbic	0x1f, 1	; 31
    16d0:	fe cf       	rjmp	.-4      	; 0x16ce <_ZN2DB5WriteE4User+0x88>
    16d2:	32 bd       	out	0x22, r19	; 34
    16d4:	21 bd       	out	0x21, r18	; 33
    16d6:	40 bd       	out	0x20, r20	; 32
    16d8:	fa 9a       	sbi	0x1f, 2	; 31
    16da:	f9 9a       	sbi	0x1f, 1	; 31
    16dc:	fe 01       	movw	r30, r28
    16de:	3f 96       	adiw	r30, 0x0f	; 15
    16e0:	be 01       	movw	r22, r28
    16e2:	67 5e       	subi	r22, 0xE7	; 231
    16e4:	7f 4f       	sbci	r23, 0xFF	; 255
    16e6:	04 97       	sbiw	r24, 0x04	; 4
    16e8:	27 e0       	ldi	r18, 0x07	; 7
    16ea:	30 e0       	ldi	r19, 0x00	; 0
    16ec:	2c 0f       	add	r18, r28
    16ee:	3d 1f       	adc	r19, r29
    16f0:	82 1b       	sub	r24, r18
    16f2:	93 0b       	sbc	r25, r19
    16f4:	21 91       	ld	r18, Z+
    16f6:	ac 01       	movw	r20, r24
    16f8:	4e 0f       	add	r20, r30
    16fa:	5f 1f       	adc	r21, r31
    16fc:	f9 99       	sbic	0x1f, 1	; 31
    16fe:	fe cf       	rjmp	.-4      	; 0x16fc <_ZN2DB5WriteE4User+0xb6>
    1700:	52 bd       	out	0x22, r21	; 34
    1702:	41 bd       	out	0x21, r20	; 33
    1704:	20 bd       	out	0x20, r18	; 32
    1706:	fa 9a       	sbi	0x1f, 2	; 31
    1708:	f9 9a       	sbi	0x1f, 1	; 31
    170a:	e6 17       	cp	r30, r22
    170c:	f7 07       	cpc	r31, r23
    170e:	91 f7       	brne	.-28     	; 0x16f4 <_ZN2DB5WriteE4User+0xae>
    1710:	df 91       	pop	r29
    1712:	cf 91       	pop	r28
    1714:	1f 91       	pop	r17
    1716:	0f 91       	pop	r16
    1718:	08 95       	ret

0000171a <_ZN2DB4ReadEj>:
    171a:	4f 92       	push	r4
    171c:	5f 92       	push	r5
    171e:	6f 92       	push	r6
    1720:	7f 92       	push	r7
    1722:	8f 92       	push	r8
    1724:	9f 92       	push	r9
    1726:	af 92       	push	r10
    1728:	bf 92       	push	r11
    172a:	cf 92       	push	r12
    172c:	df 92       	push	r13
    172e:	ef 92       	push	r14
    1730:	ff 92       	push	r15
    1732:	0f 93       	push	r16
    1734:	1f 93       	push	r17
    1736:	dc 01       	movw	r26, r24
    1738:	f9 99       	sbic	0x1f, 1	; 31
    173a:	fe cf       	rjmp	.-4      	; 0x1738 <_ZN2DB4ReadEj+0x1e>
    173c:	72 bd       	out	0x22, r23	; 34
    173e:	61 bd       	out	0x21, r22	; 33
    1740:	f8 9a       	sbi	0x1f, 0	; 31
    1742:	40 b4       	in	r4, 0x20	; 32
    1744:	51 2c       	mov	r5, r1
    1746:	61 2c       	mov	r6, r1
    1748:	71 2c       	mov	r7, r1
    174a:	cb 01       	movw	r24, r22
    174c:	01 96       	adiw	r24, 0x01	; 1
    174e:	f9 99       	sbic	0x1f, 1	; 31
    1750:	fe cf       	rjmp	.-4      	; 0x174e <_ZN2DB4ReadEj+0x34>
    1752:	92 bd       	out	0x22, r25	; 34
    1754:	81 bd       	out	0x21, r24	; 33
    1756:	f8 9a       	sbi	0x1f, 0	; 31
    1758:	00 b5       	in	r16, 0x20	; 32
    175a:	80 2e       	mov	r8, r16
    175c:	91 2c       	mov	r9, r1
    175e:	a1 2c       	mov	r10, r1
    1760:	b1 2c       	mov	r11, r1
    1762:	cb 01       	movw	r24, r22
    1764:	02 96       	adiw	r24, 0x02	; 2
    1766:	f9 99       	sbic	0x1f, 1	; 31
    1768:	fe cf       	rjmp	.-4      	; 0x1766 <_ZN2DB4ReadEj+0x4c>
    176a:	92 bd       	out	0x22, r25	; 34
    176c:	81 bd       	out	0x21, r24	; 33
    176e:	f8 9a       	sbi	0x1f, 0	; 31
    1770:	80 b5       	in	r24, 0x20	; 32
    1772:	08 2f       	mov	r16, r24
    1774:	10 e0       	ldi	r17, 0x00	; 0
    1776:	20 e0       	ldi	r18, 0x00	; 0
    1778:	30 e0       	ldi	r19, 0x00	; 0
    177a:	cb 01       	movw	r24, r22
    177c:	03 96       	adiw	r24, 0x03	; 3
    177e:	f9 99       	sbic	0x1f, 1	; 31
    1780:	fe cf       	rjmp	.-4      	; 0x177e <_ZN2DB4ReadEj+0x64>
    1782:	92 bd       	out	0x22, r25	; 34
    1784:	81 bd       	out	0x21, r24	; 33
    1786:	f8 9a       	sbi	0x1f, 0	; 31
    1788:	c0 b4       	in	r12, 0x20	; 32
    178a:	d1 2c       	mov	r13, r1
    178c:	e1 2c       	mov	r14, r1
    178e:	f1 2c       	mov	r15, r1
    1790:	cb 01       	movw	r24, r22
    1792:	04 96       	adiw	r24, 0x04	; 4
    1794:	f9 99       	sbic	0x1f, 1	; 31
    1796:	fe cf       	rjmp	.-4      	; 0x1794 <_ZN2DB4ReadEj+0x7a>
    1798:	92 bd       	out	0x22, r25	; 34
    179a:	81 bd       	out	0x21, r24	; 33
    179c:	f8 9a       	sbi	0x1f, 0	; 31
    179e:	80 b5       	in	r24, 0x20	; 32
    17a0:	52 96       	adiw	r26, 0x12	; 18
    17a2:	1c 92       	st	X, r1
    17a4:	52 97       	sbiw	r26, 0x12	; 18
    17a6:	4d 92       	st	X+, r4
    17a8:	5d 92       	st	X+, r5
    17aa:	6d 92       	st	X+, r6
    17ac:	7c 92       	st	X, r7
    17ae:	13 97       	sbiw	r26, 0x03	; 3
    17b0:	32 2f       	mov	r19, r18
    17b2:	21 2f       	mov	r18, r17
    17b4:	10 2f       	mov	r17, r16
    17b6:	00 27       	eor	r16, r16
    17b8:	08 0d       	add	r16, r8
    17ba:	19 1d       	adc	r17, r9
    17bc:	2a 1d       	adc	r18, r10
    17be:	3b 1d       	adc	r19, r11
    17c0:	76 01       	movw	r14, r12
    17c2:	dd 24       	eor	r13, r13
    17c4:	cc 24       	eor	r12, r12
    17c6:	c0 0e       	add	r12, r16
    17c8:	d1 1e       	adc	r13, r17
    17ca:	e2 1e       	adc	r14, r18
    17cc:	f3 1e       	adc	r15, r19
    17ce:	08 2f       	mov	r16, r24
    17d0:	10 e0       	ldi	r17, 0x00	; 0
    17d2:	20 e0       	ldi	r18, 0x00	; 0
    17d4:	30 e0       	ldi	r19, 0x00	; 0
    17d6:	30 2f       	mov	r19, r16
    17d8:	22 27       	eor	r18, r18
    17da:	11 27       	eor	r17, r17
    17dc:	00 27       	eor	r16, r16
    17de:	0c 0d       	add	r16, r12
    17e0:	1d 1d       	adc	r17, r13
    17e2:	2e 1d       	adc	r18, r14
    17e4:	3f 1d       	adc	r19, r15
    17e6:	14 96       	adiw	r26, 0x04	; 4
    17e8:	0d 93       	st	X+, r16
    17ea:	1d 93       	st	X+, r17
    17ec:	2d 93       	st	X+, r18
    17ee:	3c 93       	st	X, r19
    17f0:	17 97       	sbiw	r26, 0x07	; 7
    17f2:	fd 01       	movw	r30, r26
    17f4:	38 96       	adiw	r30, 0x08	; 8
    17f6:	ad 01       	movw	r20, r26
    17f8:	4e 5e       	subi	r20, 0xEE	; 238
    17fa:	5f 4f       	sbci	r21, 0xFF	; 255
    17fc:	6a 1b       	sub	r22, r26
    17fe:	7b 0b       	sbc	r23, r27
    1800:	63 50       	subi	r22, 0x03	; 3
    1802:	71 09       	sbc	r23, r1
    1804:	9b 01       	movw	r18, r22
    1806:	2e 0f       	add	r18, r30
    1808:	3f 1f       	adc	r19, r31
    180a:	f9 99       	sbic	0x1f, 1	; 31
    180c:	fe cf       	rjmp	.-4      	; 0x180a <_ZN2DB4ReadEj+0xf0>
    180e:	32 bd       	out	0x22, r19	; 34
    1810:	21 bd       	out	0x21, r18	; 33
    1812:	f8 9a       	sbi	0x1f, 0	; 31
    1814:	90 b5       	in	r25, 0x20	; 32
    1816:	91 93       	st	Z+, r25
    1818:	e4 17       	cp	r30, r20
    181a:	f5 07       	cpc	r31, r21
    181c:	99 f7       	brne	.-26     	; 0x1804 <_ZN2DB4ReadEj+0xea>
    181e:	cd 01       	movw	r24, r26
    1820:	1f 91       	pop	r17
    1822:	0f 91       	pop	r16
    1824:	ff 90       	pop	r15
    1826:	ef 90       	pop	r14
    1828:	df 90       	pop	r13
    182a:	cf 90       	pop	r12
    182c:	bf 90       	pop	r11
    182e:	af 90       	pop	r10
    1830:	9f 90       	pop	r9
    1832:	8f 90       	pop	r8
    1834:	7f 90       	pop	r7
    1836:	6f 90       	pop	r6
    1838:	5f 90       	pop	r5
    183a:	4f 90       	pop	r4
    183c:	08 95       	ret

0000183e <_ZN3LCD4InitEv>:
    183e:	80 ef       	ldi	r24, 0xF0	; 240
    1840:	8a b9       	out	0x0a, r24	; 10
    1842:	87 e0       	ldi	r24, 0x07	; 7
    1844:	84 b9       	out	0x04, r24	; 4
    1846:	88 e2       	ldi	r24, 0x28	; 40
    1848:	8b b9       	out	0x0b, r24	; 11
    184a:	15 b8       	out	0x05, r1	; 5
    184c:	86 e0       	ldi	r24, 0x06	; 6
    184e:	8a 95       	dec	r24
    1850:	f1 f7       	brne	.-4      	; 0x184e <_ZN3LCD4InitEv+0x10>
    1852:	00 c0       	rjmp	.+0      	; 0x1854 <_ZN3LCD4InitEv+0x16>
    1854:	81 e0       	ldi	r24, 0x01	; 1
    1856:	85 b9       	out	0x05, r24	; 5
    1858:	96 e0       	ldi	r25, 0x06	; 6
    185a:	9a 95       	dec	r25
    185c:	f1 f7       	brne	.-4      	; 0x185a <_ZN3LCD4InitEv+0x1c>
    185e:	00 c0       	rjmp	.+0      	; 0x1860 <_ZN3LCD4InitEv+0x22>
    1860:	15 b8       	out	0x05, r1	; 5
    1862:	e6 e0       	ldi	r30, 0x06	; 6
    1864:	ea 95       	dec	r30
    1866:	f1 f7       	brne	.-4      	; 0x1864 <_ZN3LCD4InitEv+0x26>
    1868:	00 c0       	rjmp	.+0      	; 0x186a <_ZN3LCD4InitEv+0x2c>
    186a:	e9 ef       	ldi	r30, 0xF9	; 249
    186c:	f0 e0       	ldi	r31, 0x00	; 0
    186e:	31 97       	sbiw	r30, 0x01	; 1
    1870:	f1 f7       	brne	.-4      	; 0x186e <_ZN3LCD4InitEv+0x30>
    1872:	00 c0       	rjmp	.+0      	; 0x1874 <_ZN3LCD4InitEv+0x36>
    1874:	00 00       	nop
    1876:	90 e2       	ldi	r25, 0x20	; 32
    1878:	9b b9       	out	0x0b, r25	; 11
    187a:	15 b8       	out	0x05, r1	; 5
    187c:	f6 e0       	ldi	r31, 0x06	; 6
    187e:	fa 95       	dec	r31
    1880:	f1 f7       	brne	.-4      	; 0x187e <_ZN3LCD4InitEv+0x40>
    1882:	00 c0       	rjmp	.+0      	; 0x1884 <_ZN3LCD4InitEv+0x46>
    1884:	85 b9       	out	0x05, r24	; 5
    1886:	96 e0       	ldi	r25, 0x06	; 6
    1888:	9a 95       	dec	r25
    188a:	f1 f7       	brne	.-4      	; 0x1888 <_ZN3LCD4InitEv+0x4a>
    188c:	00 c0       	rjmp	.+0      	; 0x188e <_ZN3LCD4InitEv+0x50>
    188e:	15 b8       	out	0x05, r1	; 5
    1890:	e6 e0       	ldi	r30, 0x06	; 6
    1892:	ea 95       	dec	r30
    1894:	f1 f7       	brne	.-4      	; 0x1892 <_ZN3LCD4InitEv+0x54>
    1896:	00 c0       	rjmp	.+0      	; 0x1898 <_ZN3LCD4InitEv+0x5a>
    1898:	90 e8       	ldi	r25, 0x80	; 128
    189a:	9b b9       	out	0x0b, r25	; 11
    189c:	15 b8       	out	0x05, r1	; 5
    189e:	f6 e0       	ldi	r31, 0x06	; 6
    18a0:	fa 95       	dec	r31
    18a2:	f1 f7       	brne	.-4      	; 0x18a0 <_ZN3LCD4InitEv+0x62>
    18a4:	00 c0       	rjmp	.+0      	; 0x18a6 <_ZN3LCD4InitEv+0x68>
    18a6:	85 b9       	out	0x05, r24	; 5
    18a8:	96 e0       	ldi	r25, 0x06	; 6
    18aa:	9a 95       	dec	r25
    18ac:	f1 f7       	brne	.-4      	; 0x18aa <_ZN3LCD4InitEv+0x6c>
    18ae:	00 c0       	rjmp	.+0      	; 0x18b0 <_ZN3LCD4InitEv+0x72>
    18b0:	15 b8       	out	0x05, r1	; 5
    18b2:	e6 e0       	ldi	r30, 0x06	; 6
    18b4:	ea 95       	dec	r30
    18b6:	f1 f7       	brne	.-4      	; 0x18b4 <_ZN3LCD4InitEv+0x76>
    18b8:	00 c0       	rjmp	.+0      	; 0x18ba <_ZN3LCD4InitEv+0x7c>
    18ba:	e9 ef       	ldi	r30, 0xF9	; 249
    18bc:	f0 e0       	ldi	r31, 0x00	; 0
    18be:	31 97       	sbiw	r30, 0x01	; 1
    18c0:	f1 f7       	brne	.-4      	; 0x18be <_ZN3LCD4InitEv+0x80>
    18c2:	00 c0       	rjmp	.+0      	; 0x18c4 <_ZN3LCD4InitEv+0x86>
    18c4:	00 00       	nop
    18c6:	1b b8       	out	0x0b, r1	; 11
    18c8:	15 b8       	out	0x05, r1	; 5
    18ca:	f6 e0       	ldi	r31, 0x06	; 6
    18cc:	fa 95       	dec	r31
    18ce:	f1 f7       	brne	.-4      	; 0x18cc <_ZN3LCD4InitEv+0x8e>
    18d0:	00 c0       	rjmp	.+0      	; 0x18d2 <_ZN3LCD4InitEv+0x94>
    18d2:	85 b9       	out	0x05, r24	; 5
    18d4:	96 e0       	ldi	r25, 0x06	; 6
    18d6:	9a 95       	dec	r25
    18d8:	f1 f7       	brne	.-4      	; 0x18d6 <_ZN3LCD4InitEv+0x98>
    18da:	00 c0       	rjmp	.+0      	; 0x18dc <_ZN3LCD4InitEv+0x9e>
    18dc:	15 b8       	out	0x05, r1	; 5
    18de:	e6 e0       	ldi	r30, 0x06	; 6
    18e0:	ea 95       	dec	r30
    18e2:	f1 f7       	brne	.-4      	; 0x18e0 <_ZN3LCD4InitEv+0xa2>
    18e4:	00 c0       	rjmp	.+0      	; 0x18e6 <_ZN3LCD4InitEv+0xa8>
    18e6:	90 ec       	ldi	r25, 0xC0	; 192
    18e8:	9b b9       	out	0x0b, r25	; 11
    18ea:	15 b8       	out	0x05, r1	; 5
    18ec:	f6 e0       	ldi	r31, 0x06	; 6
    18ee:	fa 95       	dec	r31
    18f0:	f1 f7       	brne	.-4      	; 0x18ee <_ZN3LCD4InitEv+0xb0>
    18f2:	00 c0       	rjmp	.+0      	; 0x18f4 <_ZN3LCD4InitEv+0xb6>
    18f4:	85 b9       	out	0x05, r24	; 5
    18f6:	96 e0       	ldi	r25, 0x06	; 6
    18f8:	9a 95       	dec	r25
    18fa:	f1 f7       	brne	.-4      	; 0x18f8 <_ZN3LCD4InitEv+0xba>
    18fc:	00 c0       	rjmp	.+0      	; 0x18fe <_ZN3LCD4InitEv+0xc0>
    18fe:	15 b8       	out	0x05, r1	; 5
    1900:	e6 e0       	ldi	r30, 0x06	; 6
    1902:	ea 95       	dec	r30
    1904:	f1 f7       	brne	.-4      	; 0x1902 <_ZN3LCD4InitEv+0xc4>
    1906:	00 c0       	rjmp	.+0      	; 0x1908 <_ZN3LCD4InitEv+0xca>
    1908:	e9 ef       	ldi	r30, 0xF9	; 249
    190a:	f0 e0       	ldi	r31, 0x00	; 0
    190c:	31 97       	sbiw	r30, 0x01	; 1
    190e:	f1 f7       	brne	.-4      	; 0x190c <_ZN3LCD4InitEv+0xce>
    1910:	00 c0       	rjmp	.+0      	; 0x1912 <_ZN3LCD4InitEv+0xd4>
    1912:	00 00       	nop
    1914:	1b b8       	out	0x0b, r1	; 11
    1916:	15 b8       	out	0x05, r1	; 5
    1918:	f6 e0       	ldi	r31, 0x06	; 6
    191a:	fa 95       	dec	r31
    191c:	f1 f7       	brne	.-4      	; 0x191a <_ZN3LCD4InitEv+0xdc>
    191e:	00 c0       	rjmp	.+0      	; 0x1920 <_ZN3LCD4InitEv+0xe2>
    1920:	85 b9       	out	0x05, r24	; 5
    1922:	96 e0       	ldi	r25, 0x06	; 6
    1924:	9a 95       	dec	r25
    1926:	f1 f7       	brne	.-4      	; 0x1924 <_ZN3LCD4InitEv+0xe6>
    1928:	00 c0       	rjmp	.+0      	; 0x192a <_ZN3LCD4InitEv+0xec>
    192a:	15 b8       	out	0x05, r1	; 5
    192c:	e6 e0       	ldi	r30, 0x06	; 6
    192e:	ea 95       	dec	r30
    1930:	f1 f7       	brne	.-4      	; 0x192e <_ZN3LCD4InitEv+0xf0>
    1932:	00 c0       	rjmp	.+0      	; 0x1934 <_ZN3LCD4InitEv+0xf6>
    1934:	90 e6       	ldi	r25, 0x60	; 96
    1936:	9b b9       	out	0x0b, r25	; 11
    1938:	15 b8       	out	0x05, r1	; 5
    193a:	f6 e0       	ldi	r31, 0x06	; 6
    193c:	fa 95       	dec	r31
    193e:	f1 f7       	brne	.-4      	; 0x193c <_ZN3LCD4InitEv+0xfe>
    1940:	00 c0       	rjmp	.+0      	; 0x1942 <_ZN3LCD4InitEv+0x104>
    1942:	85 b9       	out	0x05, r24	; 5
    1944:	86 e0       	ldi	r24, 0x06	; 6
    1946:	8a 95       	dec	r24
    1948:	f1 f7       	brne	.-4      	; 0x1946 <_ZN3LCD4InitEv+0x108>
    194a:	00 c0       	rjmp	.+0      	; 0x194c <_ZN3LCD4InitEv+0x10e>
    194c:	15 b8       	out	0x05, r1	; 5
    194e:	96 e0       	ldi	r25, 0x06	; 6
    1950:	9a 95       	dec	r25
    1952:	f1 f7       	brne	.-4      	; 0x1950 <_ZN3LCD4InitEv+0x112>
    1954:	00 c0       	rjmp	.+0      	; 0x1956 <_ZN3LCD4InitEv+0x118>
    1956:	e9 ef       	ldi	r30, 0xF9	; 249
    1958:	f0 e0       	ldi	r31, 0x00	; 0
    195a:	31 97       	sbiw	r30, 0x01	; 1
    195c:	f1 f7       	brne	.-4      	; 0x195a <_ZN3LCD4InitEv+0x11c>
    195e:	00 c0       	rjmp	.+0      	; 0x1960 <_ZN3LCD4InitEv+0x122>
    1960:	00 00       	nop
    1962:	08 95       	ret

00001964 <_ZN3LCD7commandEh>:
    1964:	98 2f       	mov	r25, r24
    1966:	90 7f       	andi	r25, 0xF0	; 240
    1968:	9b b9       	out	0x0b, r25	; 11
    196a:	15 b8       	out	0x05, r1	; 5
    196c:	36 e0       	ldi	r19, 0x06	; 6
    196e:	3a 95       	dec	r19
    1970:	f1 f7       	brne	.-4      	; 0x196e <_ZN3LCD7commandEh+0xa>
    1972:	00 c0       	rjmp	.+0      	; 0x1974 <_ZN3LCD7commandEh+0x10>
    1974:	21 e0       	ldi	r18, 0x01	; 1
    1976:	25 b9       	out	0x05, r18	; 5
    1978:	96 e0       	ldi	r25, 0x06	; 6
    197a:	9a 95       	dec	r25
    197c:	f1 f7       	brne	.-4      	; 0x197a <_ZN3LCD7commandEh+0x16>
    197e:	00 c0       	rjmp	.+0      	; 0x1980 <_ZN3LCD7commandEh+0x1c>
    1980:	15 b8       	out	0x05, r1	; 5
    1982:	36 e0       	ldi	r19, 0x06	; 6
    1984:	3a 95       	dec	r19
    1986:	f1 f7       	brne	.-4      	; 0x1984 <_ZN3LCD7commandEh+0x20>
    1988:	00 c0       	rjmp	.+0      	; 0x198a <_ZN3LCD7commandEh+0x26>
    198a:	30 e1       	ldi	r19, 0x10	; 16
    198c:	83 9f       	mul	r24, r19
    198e:	c0 01       	movw	r24, r0
    1990:	11 24       	eor	r1, r1
    1992:	8b b9       	out	0x0b, r24	; 11
    1994:	15 b8       	out	0x05, r1	; 5
    1996:	86 e0       	ldi	r24, 0x06	; 6
    1998:	8a 95       	dec	r24
    199a:	f1 f7       	brne	.-4      	; 0x1998 <_ZN3LCD7commandEh+0x34>
    199c:	00 c0       	rjmp	.+0      	; 0x199e <_ZN3LCD7commandEh+0x3a>
    199e:	25 b9       	out	0x05, r18	; 5
    19a0:	96 e0       	ldi	r25, 0x06	; 6
    19a2:	9a 95       	dec	r25
    19a4:	f1 f7       	brne	.-4      	; 0x19a2 <_ZN3LCD7commandEh+0x3e>
    19a6:	00 c0       	rjmp	.+0      	; 0x19a8 <_ZN3LCD7commandEh+0x44>
    19a8:	15 b8       	out	0x05, r1	; 5
    19aa:	36 e0       	ldi	r19, 0x06	; 6
    19ac:	3a 95       	dec	r19
    19ae:	f1 f7       	brne	.-4      	; 0x19ac <_ZN3LCD7commandEh+0x48>
    19b0:	00 c0       	rjmp	.+0      	; 0x19b2 <_ZN3LCD7commandEh+0x4e>
    19b2:	08 95       	ret

000019b4 <_ZN3LCD5printEPKc>:
    19b4:	fc 01       	movw	r30, r24
    19b6:	40 81       	ld	r20, Z
    19b8:	44 23       	and	r20, r20
    19ba:	09 f4       	brne	.+2      	; 0x19be <_ZN3LCD5printEPKc+0xa>
    19bc:	53 c0       	rjmp	.+166    	; 0x1a64 <_ZN3LCD5printEPKc+0xb0>
    19be:	31 96       	adiw	r30, 0x01	; 1
    19c0:	92 e0       	ldi	r25, 0x02	; 2
    19c2:	23 e0       	ldi	r18, 0x03	; 3
    19c4:	70 ef       	ldi	r23, 0xF0	; 240
    19c6:	64 e0       	ldi	r22, 0x04	; 4
    19c8:	85 e0       	ldi	r24, 0x05	; 5
    19ca:	1b b8       	out	0x0b, r1	; 11
    19cc:	1a b8       	out	0x0a, r1	; 10
    19ce:	95 b9       	out	0x05, r25	; 5
    19d0:	36 e0       	ldi	r19, 0x06	; 6
    19d2:	3a 95       	dec	r19
    19d4:	f1 f7       	brne	.-4      	; 0x19d2 <_ZN3LCD5printEPKc+0x1e>
    19d6:	00 c0       	rjmp	.+0      	; 0x19d8 <_ZN3LCD5printEPKc+0x24>
    19d8:	25 b9       	out	0x05, r18	; 5
    19da:	56 e0       	ldi	r21, 0x06	; 6
    19dc:	5a 95       	dec	r21
    19de:	f1 f7       	brne	.-4      	; 0x19dc <_ZN3LCD5printEPKc+0x28>
    19e0:	00 c0       	rjmp	.+0      	; 0x19e2 <_ZN3LCD5printEPKc+0x2e>
    19e2:	95 b9       	out	0x05, r25	; 5
    19e4:	36 e0       	ldi	r19, 0x06	; 6
    19e6:	3a 95       	dec	r19
    19e8:	f1 f7       	brne	.-4      	; 0x19e6 <_ZN3LCD5printEPKc+0x32>
    19ea:	00 c0       	rjmp	.+0      	; 0x19ec <_ZN3LCD5printEPKc+0x38>
    19ec:	39 b1       	in	r19, 0x09	; 9
    19ee:	95 b9       	out	0x05, r25	; 5
    19f0:	56 e0       	ldi	r21, 0x06	; 6
    19f2:	5a 95       	dec	r21
    19f4:	f1 f7       	brne	.-4      	; 0x19f2 <_ZN3LCD5printEPKc+0x3e>
    19f6:	00 c0       	rjmp	.+0      	; 0x19f8 <_ZN3LCD5printEPKc+0x44>
    19f8:	25 b9       	out	0x05, r18	; 5
    19fa:	56 e0       	ldi	r21, 0x06	; 6
    19fc:	5a 95       	dec	r21
    19fe:	f1 f7       	brne	.-4      	; 0x19fc <_ZN3LCD5printEPKc+0x48>
    1a00:	00 c0       	rjmp	.+0      	; 0x1a02 <_ZN3LCD5printEPKc+0x4e>
    1a02:	95 b9       	out	0x05, r25	; 5
    1a04:	56 e0       	ldi	r21, 0x06	; 6
    1a06:	5a 95       	dec	r21
    1a08:	f1 f7       	brne	.-4      	; 0x1a06 <_ZN3LCD5printEPKc+0x52>
    1a0a:	00 c0       	rjmp	.+0      	; 0x1a0c <_ZN3LCD5printEPKc+0x58>
    1a0c:	37 ff       	sbrs	r19, 7
    1a0e:	dd cf       	rjmp	.-70     	; 0x19ca <_ZN3LCD5printEPKc+0x16>
    1a10:	7a b9       	out	0x0a, r23	; 10
    1a12:	34 2f       	mov	r19, r20
    1a14:	30 7f       	andi	r19, 0xF0	; 240
    1a16:	3b b9       	out	0x0b, r19	; 11
    1a18:	65 b9       	out	0x05, r22	; 5
    1a1a:	36 e0       	ldi	r19, 0x06	; 6
    1a1c:	3a 95       	dec	r19
    1a1e:	f1 f7       	brne	.-4      	; 0x1a1c <_ZN3LCD5printEPKc+0x68>
    1a20:	00 c0       	rjmp	.+0      	; 0x1a22 <_ZN3LCD5printEPKc+0x6e>
    1a22:	85 b9       	out	0x05, r24	; 5
    1a24:	56 e0       	ldi	r21, 0x06	; 6
    1a26:	5a 95       	dec	r21
    1a28:	f1 f7       	brne	.-4      	; 0x1a26 <_ZN3LCD5printEPKc+0x72>
    1a2a:	00 c0       	rjmp	.+0      	; 0x1a2c <_ZN3LCD5printEPKc+0x78>
    1a2c:	65 b9       	out	0x05, r22	; 5
    1a2e:	36 e0       	ldi	r19, 0x06	; 6
    1a30:	3a 95       	dec	r19
    1a32:	f1 f7       	brne	.-4      	; 0x1a30 <_ZN3LCD5printEPKc+0x7c>
    1a34:	00 c0       	rjmp	.+0      	; 0x1a36 <_ZN3LCD5printEPKc+0x82>
    1a36:	30 e1       	ldi	r19, 0x10	; 16
    1a38:	43 9f       	mul	r20, r19
    1a3a:	a0 01       	movw	r20, r0
    1a3c:	11 24       	eor	r1, r1
    1a3e:	4b b9       	out	0x0b, r20	; 11
    1a40:	65 b9       	out	0x05, r22	; 5
    1a42:	56 e0       	ldi	r21, 0x06	; 6
    1a44:	5a 95       	dec	r21
    1a46:	f1 f7       	brne	.-4      	; 0x1a44 <_ZN3LCD5printEPKc+0x90>
    1a48:	00 c0       	rjmp	.+0      	; 0x1a4a <_ZN3LCD5printEPKc+0x96>
    1a4a:	85 b9       	out	0x05, r24	; 5
    1a4c:	36 e0       	ldi	r19, 0x06	; 6
    1a4e:	3a 95       	dec	r19
    1a50:	f1 f7       	brne	.-4      	; 0x1a4e <_ZN3LCD5printEPKc+0x9a>
    1a52:	00 c0       	rjmp	.+0      	; 0x1a54 <_ZN3LCD5printEPKc+0xa0>
    1a54:	65 b9       	out	0x05, r22	; 5
    1a56:	56 e0       	ldi	r21, 0x06	; 6
    1a58:	5a 95       	dec	r21
    1a5a:	f1 f7       	brne	.-4      	; 0x1a58 <_ZN3LCD5printEPKc+0xa4>
    1a5c:	00 c0       	rjmp	.+0      	; 0x1a5e <_ZN3LCD5printEPKc+0xaa>
    1a5e:	41 91       	ld	r20, Z+
    1a60:	41 11       	cpse	r20, r1
    1a62:	b3 cf       	rjmp	.-154    	; 0x19ca <_ZN3LCD5printEPKc+0x16>
    1a64:	08 95       	ret

00001a66 <_ZN2DB7displayE4User>:
    1a66:	cf 92       	push	r12
    1a68:	df 92       	push	r13
    1a6a:	ef 92       	push	r14
    1a6c:	ff 92       	push	r15
    1a6e:	0f 93       	push	r16
    1a70:	1f 93       	push	r17
    1a72:	cf 93       	push	r28
    1a74:	df 93       	push	r29
    1a76:	cd b7       	in	r28, 0x3d	; 61
    1a78:	de b7       	in	r29, 0x3e	; 62
    1a7a:	1b b8       	out	0x0b, r1	; 11
    1a7c:	15 b8       	out	0x05, r1	; 5
    1a7e:	26 e0       	ldi	r18, 0x06	; 6
    1a80:	2a 95       	dec	r18
    1a82:	f1 f7       	brne	.-4      	; 0x1a80 <_ZN2DB7displayE4User+0x1a>
    1a84:	00 c0       	rjmp	.+0      	; 0x1a86 <_ZN2DB7displayE4User+0x20>
    1a86:	81 e0       	ldi	r24, 0x01	; 1
    1a88:	85 b9       	out	0x05, r24	; 5
    1a8a:	36 e0       	ldi	r19, 0x06	; 6
    1a8c:	3a 95       	dec	r19
    1a8e:	f1 f7       	brne	.-4      	; 0x1a8c <_ZN2DB7displayE4User+0x26>
    1a90:	00 c0       	rjmp	.+0      	; 0x1a92 <_ZN2DB7displayE4User+0x2c>
    1a92:	15 b8       	out	0x05, r1	; 5
    1a94:	56 e0       	ldi	r21, 0x06	; 6
    1a96:	5a 95       	dec	r21
    1a98:	f1 f7       	brne	.-4      	; 0x1a96 <_ZN2DB7displayE4User+0x30>
    1a9a:	00 c0       	rjmp	.+0      	; 0x1a9c <_ZN2DB7displayE4User+0x36>
    1a9c:	90 e1       	ldi	r25, 0x10	; 16
    1a9e:	9b b9       	out	0x0b, r25	; 11
    1aa0:	15 b8       	out	0x05, r1	; 5
    1aa2:	76 e0       	ldi	r23, 0x06	; 6
    1aa4:	7a 95       	dec	r23
    1aa6:	f1 f7       	brne	.-4      	; 0x1aa4 <_ZN2DB7displayE4User+0x3e>
    1aa8:	00 c0       	rjmp	.+0      	; 0x1aaa <_ZN2DB7displayE4User+0x44>
    1aaa:	85 b9       	out	0x05, r24	; 5
    1aac:	86 e0       	ldi	r24, 0x06	; 6
    1aae:	8a 95       	dec	r24
    1ab0:	f1 f7       	brne	.-4      	; 0x1aae <_ZN2DB7displayE4User+0x48>
    1ab2:	00 c0       	rjmp	.+0      	; 0x1ab4 <_ZN2DB7displayE4User+0x4e>
    1ab4:	15 b8       	out	0x05, r1	; 5
    1ab6:	96 e0       	ldi	r25, 0x06	; 6
    1ab8:	9a 95       	dec	r25
    1aba:	f1 f7       	brne	.-4      	; 0x1ab8 <_ZN2DB7displayE4User+0x52>
    1abc:	00 c0       	rjmp	.+0      	; 0x1abe <_ZN2DB7displayE4User+0x58>
    1abe:	e0 e7       	ldi	r30, 0x70	; 112
    1ac0:	f2 e0       	ldi	r31, 0x02	; 2
    1ac2:	31 97       	sbiw	r30, 0x01	; 1
    1ac4:	f1 f7       	brne	.-4      	; 0x1ac2 <_ZN2DB7displayE4User+0x5c>
    1ac6:	00 c0       	rjmp	.+0      	; 0x1ac8 <_ZN2DB7displayE4User+0x62>
    1ac8:	00 00       	nop
    1aca:	e8 ea       	ldi	r30, 0xA8	; 168
    1acc:	f1 e0       	ldi	r31, 0x01	; 1
    1ace:	39 e4       	ldi	r19, 0x49	; 73
    1ad0:	82 e0       	ldi	r24, 0x02	; 2
    1ad2:	93 e0       	ldi	r25, 0x03	; 3
    1ad4:	60 ef       	ldi	r22, 0xF0	; 240
    1ad6:	44 e0       	ldi	r20, 0x04	; 4
    1ad8:	55 e0       	ldi	r21, 0x05	; 5
    1ada:	1b b8       	out	0x0b, r1	; 11
    1adc:	1a b8       	out	0x0a, r1	; 10
    1ade:	85 b9       	out	0x05, r24	; 5
    1ae0:	26 e0       	ldi	r18, 0x06	; 6
    1ae2:	2a 95       	dec	r18
    1ae4:	f1 f7       	brne	.-4      	; 0x1ae2 <_ZN2DB7displayE4User+0x7c>
    1ae6:	00 c0       	rjmp	.+0      	; 0x1ae8 <_ZN2DB7displayE4User+0x82>
    1ae8:	95 b9       	out	0x05, r25	; 5
    1aea:	76 e0       	ldi	r23, 0x06	; 6
    1aec:	7a 95       	dec	r23
    1aee:	f1 f7       	brne	.-4      	; 0x1aec <_ZN2DB7displayE4User+0x86>
    1af0:	00 c0       	rjmp	.+0      	; 0x1af2 <_ZN2DB7displayE4User+0x8c>
    1af2:	85 b9       	out	0x05, r24	; 5
    1af4:	26 e0       	ldi	r18, 0x06	; 6
    1af6:	2a 95       	dec	r18
    1af8:	f1 f7       	brne	.-4      	; 0x1af6 <_ZN2DB7displayE4User+0x90>
    1afa:	00 c0       	rjmp	.+0      	; 0x1afc <_ZN2DB7displayE4User+0x96>
    1afc:	29 b1       	in	r18, 0x09	; 9
    1afe:	85 b9       	out	0x05, r24	; 5
    1b00:	76 e0       	ldi	r23, 0x06	; 6
    1b02:	7a 95       	dec	r23
    1b04:	f1 f7       	brne	.-4      	; 0x1b02 <_ZN2DB7displayE4User+0x9c>
    1b06:	00 c0       	rjmp	.+0      	; 0x1b08 <_ZN2DB7displayE4User+0xa2>
    1b08:	95 b9       	out	0x05, r25	; 5
    1b0a:	76 e0       	ldi	r23, 0x06	; 6
    1b0c:	7a 95       	dec	r23
    1b0e:	f1 f7       	brne	.-4      	; 0x1b0c <_ZN2DB7displayE4User+0xa6>
    1b10:	00 c0       	rjmp	.+0      	; 0x1b12 <_ZN2DB7displayE4User+0xac>
    1b12:	85 b9       	out	0x05, r24	; 5
    1b14:	76 e0       	ldi	r23, 0x06	; 6
    1b16:	7a 95       	dec	r23
    1b18:	f1 f7       	brne	.-4      	; 0x1b16 <_ZN2DB7displayE4User+0xb0>
    1b1a:	00 c0       	rjmp	.+0      	; 0x1b1c <_ZN2DB7displayE4User+0xb6>
    1b1c:	27 ff       	sbrs	r18, 7
    1b1e:	dd cf       	rjmp	.-70     	; 0x1ada <_ZN2DB7displayE4User+0x74>
    1b20:	6a b9       	out	0x0a, r22	; 10
    1b22:	23 2f       	mov	r18, r19
    1b24:	20 7f       	andi	r18, 0xF0	; 240
    1b26:	2b b9       	out	0x0b, r18	; 11
    1b28:	45 b9       	out	0x05, r20	; 5
    1b2a:	26 e0       	ldi	r18, 0x06	; 6
    1b2c:	2a 95       	dec	r18
    1b2e:	f1 f7       	brne	.-4      	; 0x1b2c <_ZN2DB7displayE4User+0xc6>
    1b30:	00 c0       	rjmp	.+0      	; 0x1b32 <_ZN2DB7displayE4User+0xcc>
    1b32:	55 b9       	out	0x05, r21	; 5
    1b34:	76 e0       	ldi	r23, 0x06	; 6
    1b36:	7a 95       	dec	r23
    1b38:	f1 f7       	brne	.-4      	; 0x1b36 <_ZN2DB7displayE4User+0xd0>
    1b3a:	00 c0       	rjmp	.+0      	; 0x1b3c <_ZN2DB7displayE4User+0xd6>
    1b3c:	45 b9       	out	0x05, r20	; 5
    1b3e:	26 e0       	ldi	r18, 0x06	; 6
    1b40:	2a 95       	dec	r18
    1b42:	f1 f7       	brne	.-4      	; 0x1b40 <_ZN2DB7displayE4User+0xda>
    1b44:	00 c0       	rjmp	.+0      	; 0x1b46 <_ZN2DB7displayE4User+0xe0>
    1b46:	70 e1       	ldi	r23, 0x10	; 16
    1b48:	37 9f       	mul	r19, r23
    1b4a:	90 01       	movw	r18, r0
    1b4c:	11 24       	eor	r1, r1
    1b4e:	2b b9       	out	0x0b, r18	; 11
    1b50:	45 b9       	out	0x05, r20	; 5
    1b52:	26 e0       	ldi	r18, 0x06	; 6
    1b54:	2a 95       	dec	r18
    1b56:	f1 f7       	brne	.-4      	; 0x1b54 <_ZN2DB7displayE4User+0xee>
    1b58:	00 c0       	rjmp	.+0      	; 0x1b5a <_ZN2DB7displayE4User+0xf4>
    1b5a:	55 b9       	out	0x05, r21	; 5
    1b5c:	36 e0       	ldi	r19, 0x06	; 6
    1b5e:	3a 95       	dec	r19
    1b60:	f1 f7       	brne	.-4      	; 0x1b5e <_ZN2DB7displayE4User+0xf8>
    1b62:	00 c0       	rjmp	.+0      	; 0x1b64 <_ZN2DB7displayE4User+0xfe>
    1b64:	45 b9       	out	0x05, r20	; 5
    1b66:	76 e0       	ldi	r23, 0x06	; 6
    1b68:	7a 95       	dec	r23
    1b6a:	f1 f7       	brne	.-4      	; 0x1b68 <_ZN2DB7displayE4User+0x102>
    1b6c:	00 c0       	rjmp	.+0      	; 0x1b6e <_ZN2DB7displayE4User+0x108>
    1b6e:	31 91       	ld	r19, Z+
    1b70:	31 11       	cpse	r19, r1
    1b72:	b3 cf       	rjmp	.-154    	; 0x1ada <_ZN2DB7displayE4User+0x74>
    1b74:	cb 84       	ldd	r12, Y+11	; 0x0b
    1b76:	dc 84       	ldd	r13, Y+12	; 0x0c
    1b78:	ed 84       	ldd	r14, Y+13	; 0x0d
    1b7a:	fe 84       	ldd	r15, Y+14	; 0x0e
    1b7c:	8a e0       	ldi	r24, 0x0A	; 10
    1b7e:	90 e0       	ldi	r25, 0x00	; 0
    1b80:	0e 94 32 10 	call	0x2064	; 0x2064 <malloc>
    1b84:	8c 01       	movw	r16, r24
    1b86:	2a e0       	ldi	r18, 0x0A	; 10
    1b88:	ac 01       	movw	r20, r24
    1b8a:	c7 01       	movw	r24, r14
    1b8c:	b6 01       	movw	r22, r12
    1b8e:	0e 94 b6 11 	call	0x236c	; 0x236c <__ltoa_ncheck>
    1b92:	fc 01       	movw	r30, r24
    1b94:	40 81       	ld	r20, Z
    1b96:	44 23       	and	r20, r20
    1b98:	09 f4       	brne	.+2      	; 0x1b9c <_ZN2DB7displayE4User+0x136>
    1b9a:	54 c0       	rjmp	.+168    	; 0x1c44 <_ZN2DB7displayE4User+0x1de>
    1b9c:	fc 01       	movw	r30, r24
    1b9e:	31 96       	adiw	r30, 0x01	; 1
    1ba0:	92 e0       	ldi	r25, 0x02	; 2
    1ba2:	23 e0       	ldi	r18, 0x03	; 3
    1ba4:	70 ef       	ldi	r23, 0xF0	; 240
    1ba6:	64 e0       	ldi	r22, 0x04	; 4
    1ba8:	85 e0       	ldi	r24, 0x05	; 5
    1baa:	1b b8       	out	0x0b, r1	; 11
    1bac:	1a b8       	out	0x0a, r1	; 10
    1bae:	95 b9       	out	0x05, r25	; 5
    1bb0:	36 e0       	ldi	r19, 0x06	; 6
    1bb2:	3a 95       	dec	r19
    1bb4:	f1 f7       	brne	.-4      	; 0x1bb2 <_ZN2DB7displayE4User+0x14c>
    1bb6:	00 c0       	rjmp	.+0      	; 0x1bb8 <_ZN2DB7displayE4User+0x152>
    1bb8:	25 b9       	out	0x05, r18	; 5
    1bba:	56 e0       	ldi	r21, 0x06	; 6
    1bbc:	5a 95       	dec	r21
    1bbe:	f1 f7       	brne	.-4      	; 0x1bbc <_ZN2DB7displayE4User+0x156>
    1bc0:	00 c0       	rjmp	.+0      	; 0x1bc2 <_ZN2DB7displayE4User+0x15c>
    1bc2:	95 b9       	out	0x05, r25	; 5
    1bc4:	36 e0       	ldi	r19, 0x06	; 6
    1bc6:	3a 95       	dec	r19
    1bc8:	f1 f7       	brne	.-4      	; 0x1bc6 <_ZN2DB7displayE4User+0x160>
    1bca:	00 c0       	rjmp	.+0      	; 0x1bcc <_ZN2DB7displayE4User+0x166>
    1bcc:	39 b1       	in	r19, 0x09	; 9
    1bce:	95 b9       	out	0x05, r25	; 5
    1bd0:	56 e0       	ldi	r21, 0x06	; 6
    1bd2:	5a 95       	dec	r21
    1bd4:	f1 f7       	brne	.-4      	; 0x1bd2 <_ZN2DB7displayE4User+0x16c>
    1bd6:	00 c0       	rjmp	.+0      	; 0x1bd8 <_ZN2DB7displayE4User+0x172>
    1bd8:	25 b9       	out	0x05, r18	; 5
    1bda:	56 e0       	ldi	r21, 0x06	; 6
    1bdc:	5a 95       	dec	r21
    1bde:	f1 f7       	brne	.-4      	; 0x1bdc <_ZN2DB7displayE4User+0x176>
    1be0:	00 c0       	rjmp	.+0      	; 0x1be2 <_ZN2DB7displayE4User+0x17c>
    1be2:	95 b9       	out	0x05, r25	; 5
    1be4:	56 e0       	ldi	r21, 0x06	; 6
    1be6:	5a 95       	dec	r21
    1be8:	f1 f7       	brne	.-4      	; 0x1be6 <_ZN2DB7displayE4User+0x180>
    1bea:	00 c0       	rjmp	.+0      	; 0x1bec <_ZN2DB7displayE4User+0x186>
    1bec:	37 ff       	sbrs	r19, 7
    1bee:	dd cf       	rjmp	.-70     	; 0x1baa <_ZN2DB7displayE4User+0x144>
    1bf0:	7a b9       	out	0x0a, r23	; 10
    1bf2:	34 2f       	mov	r19, r20
    1bf4:	30 7f       	andi	r19, 0xF0	; 240
    1bf6:	3b b9       	out	0x0b, r19	; 11
    1bf8:	65 b9       	out	0x05, r22	; 5
    1bfa:	36 e0       	ldi	r19, 0x06	; 6
    1bfc:	3a 95       	dec	r19
    1bfe:	f1 f7       	brne	.-4      	; 0x1bfc <_ZN2DB7displayE4User+0x196>
    1c00:	00 c0       	rjmp	.+0      	; 0x1c02 <_ZN2DB7displayE4User+0x19c>
    1c02:	85 b9       	out	0x05, r24	; 5
    1c04:	56 e0       	ldi	r21, 0x06	; 6
    1c06:	5a 95       	dec	r21
    1c08:	f1 f7       	brne	.-4      	; 0x1c06 <_ZN2DB7displayE4User+0x1a0>
    1c0a:	00 c0       	rjmp	.+0      	; 0x1c0c <_ZN2DB7displayE4User+0x1a6>
    1c0c:	65 b9       	out	0x05, r22	; 5
    1c0e:	36 e0       	ldi	r19, 0x06	; 6
    1c10:	3a 95       	dec	r19
    1c12:	f1 f7       	brne	.-4      	; 0x1c10 <_ZN2DB7displayE4User+0x1aa>
    1c14:	00 c0       	rjmp	.+0      	; 0x1c16 <_ZN2DB7displayE4User+0x1b0>
    1c16:	30 e1       	ldi	r19, 0x10	; 16
    1c18:	43 9f       	mul	r20, r19
    1c1a:	a0 01       	movw	r20, r0
    1c1c:	11 24       	eor	r1, r1
    1c1e:	4b b9       	out	0x0b, r20	; 11
    1c20:	65 b9       	out	0x05, r22	; 5
    1c22:	56 e0       	ldi	r21, 0x06	; 6
    1c24:	5a 95       	dec	r21
    1c26:	f1 f7       	brne	.-4      	; 0x1c24 <_ZN2DB7displayE4User+0x1be>
    1c28:	00 c0       	rjmp	.+0      	; 0x1c2a <_ZN2DB7displayE4User+0x1c4>
    1c2a:	85 b9       	out	0x05, r24	; 5
    1c2c:	36 e0       	ldi	r19, 0x06	; 6
    1c2e:	3a 95       	dec	r19
    1c30:	f1 f7       	brne	.-4      	; 0x1c2e <_ZN2DB7displayE4User+0x1c8>
    1c32:	00 c0       	rjmp	.+0      	; 0x1c34 <_ZN2DB7displayE4User+0x1ce>
    1c34:	65 b9       	out	0x05, r22	; 5
    1c36:	56 e0       	ldi	r21, 0x06	; 6
    1c38:	5a 95       	dec	r21
    1c3a:	f1 f7       	brne	.-4      	; 0x1c38 <_ZN2DB7displayE4User+0x1d2>
    1c3c:	00 c0       	rjmp	.+0      	; 0x1c3e <_ZN2DB7displayE4User+0x1d8>
    1c3e:	41 91       	ld	r20, Z+
    1c40:	41 11       	cpse	r20, r1
    1c42:	b3 cf       	rjmp	.-154    	; 0x1baa <_ZN2DB7displayE4User+0x144>
    1c44:	c8 01       	movw	r24, r16
    1c46:	0e 94 ca 10 	call	0x2194	; 0x2194 <free>
    1c4a:	80 ec       	ldi	r24, 0xC0	; 192
    1c4c:	8b b9       	out	0x0b, r24	; 11
    1c4e:	15 b8       	out	0x05, r1	; 5
    1c50:	f6 e0       	ldi	r31, 0x06	; 6
    1c52:	fa 95       	dec	r31
    1c54:	f1 f7       	brne	.-4      	; 0x1c52 <_ZN2DB7displayE4User+0x1ec>
    1c56:	00 c0       	rjmp	.+0      	; 0x1c58 <_ZN2DB7displayE4User+0x1f2>
    1c58:	81 e0       	ldi	r24, 0x01	; 1
    1c5a:	85 b9       	out	0x05, r24	; 5
    1c5c:	26 e0       	ldi	r18, 0x06	; 6
    1c5e:	2a 95       	dec	r18
    1c60:	f1 f7       	brne	.-4      	; 0x1c5e <_ZN2DB7displayE4User+0x1f8>
    1c62:	00 c0       	rjmp	.+0      	; 0x1c64 <_ZN2DB7displayE4User+0x1fe>
    1c64:	15 b8       	out	0x05, r1	; 5
    1c66:	36 e0       	ldi	r19, 0x06	; 6
    1c68:	3a 95       	dec	r19
    1c6a:	f1 f7       	brne	.-4      	; 0x1c68 <_ZN2DB7displayE4User+0x202>
    1c6c:	00 c0       	rjmp	.+0      	; 0x1c6e <_ZN2DB7displayE4User+0x208>
    1c6e:	1b b8       	out	0x0b, r1	; 11
    1c70:	15 b8       	out	0x05, r1	; 5
    1c72:	56 e0       	ldi	r21, 0x06	; 6
    1c74:	5a 95       	dec	r21
    1c76:	f1 f7       	brne	.-4      	; 0x1c74 <_ZN2DB7displayE4User+0x20e>
    1c78:	00 c0       	rjmp	.+0      	; 0x1c7a <_ZN2DB7displayE4User+0x214>
    1c7a:	85 b9       	out	0x05, r24	; 5
    1c7c:	76 e0       	ldi	r23, 0x06	; 6
    1c7e:	7a 95       	dec	r23
    1c80:	f1 f7       	brne	.-4      	; 0x1c7e <_ZN2DB7displayE4User+0x218>
    1c82:	00 c0       	rjmp	.+0      	; 0x1c84 <_ZN2DB7displayE4User+0x21e>
    1c84:	15 b8       	out	0x05, r1	; 5
    1c86:	86 e0       	ldi	r24, 0x06	; 6
    1c88:	8a 95       	dec	r24
    1c8a:	f1 f7       	brne	.-4      	; 0x1c88 <_ZN2DB7displayE4User+0x222>
    1c8c:	00 c0       	rjmp	.+0      	; 0x1c8e <_ZN2DB7displayE4User+0x228>
    1c8e:	ed ea       	ldi	r30, 0xAD	; 173
    1c90:	f1 e0       	ldi	r31, 0x01	; 1
    1c92:	34 e4       	ldi	r19, 0x44	; 68
    1c94:	82 e0       	ldi	r24, 0x02	; 2
    1c96:	93 e0       	ldi	r25, 0x03	; 3
    1c98:	60 ef       	ldi	r22, 0xF0	; 240
    1c9a:	44 e0       	ldi	r20, 0x04	; 4
    1c9c:	55 e0       	ldi	r21, 0x05	; 5
    1c9e:	1b b8       	out	0x0b, r1	; 11
    1ca0:	1a b8       	out	0x0a, r1	; 10
    1ca2:	85 b9       	out	0x05, r24	; 5
    1ca4:	76 e0       	ldi	r23, 0x06	; 6
    1ca6:	7a 95       	dec	r23
    1ca8:	f1 f7       	brne	.-4      	; 0x1ca6 <_ZN2DB7displayE4User+0x240>
    1caa:	00 c0       	rjmp	.+0      	; 0x1cac <_ZN2DB7displayE4User+0x246>
    1cac:	95 b9       	out	0x05, r25	; 5
    1cae:	26 e0       	ldi	r18, 0x06	; 6
    1cb0:	2a 95       	dec	r18
    1cb2:	f1 f7       	brne	.-4      	; 0x1cb0 <_ZN2DB7displayE4User+0x24a>
    1cb4:	00 c0       	rjmp	.+0      	; 0x1cb6 <_ZN2DB7displayE4User+0x250>
    1cb6:	85 b9       	out	0x05, r24	; 5
    1cb8:	76 e0       	ldi	r23, 0x06	; 6
    1cba:	7a 95       	dec	r23
    1cbc:	f1 f7       	brne	.-4      	; 0x1cba <_ZN2DB7displayE4User+0x254>
    1cbe:	00 c0       	rjmp	.+0      	; 0x1cc0 <_ZN2DB7displayE4User+0x25a>
    1cc0:	29 b1       	in	r18, 0x09	; 9
    1cc2:	85 b9       	out	0x05, r24	; 5
    1cc4:	76 e0       	ldi	r23, 0x06	; 6
    1cc6:	7a 95       	dec	r23
    1cc8:	f1 f7       	brne	.-4      	; 0x1cc6 <_ZN2DB7displayE4User+0x260>
    1cca:	00 c0       	rjmp	.+0      	; 0x1ccc <_ZN2DB7displayE4User+0x266>
    1ccc:	95 b9       	out	0x05, r25	; 5
    1cce:	76 e0       	ldi	r23, 0x06	; 6
    1cd0:	7a 95       	dec	r23
    1cd2:	f1 f7       	brne	.-4      	; 0x1cd0 <_ZN2DB7displayE4User+0x26a>
    1cd4:	00 c0       	rjmp	.+0      	; 0x1cd6 <_ZN2DB7displayE4User+0x270>
    1cd6:	85 b9       	out	0x05, r24	; 5
    1cd8:	76 e0       	ldi	r23, 0x06	; 6
    1cda:	7a 95       	dec	r23
    1cdc:	f1 f7       	brne	.-4      	; 0x1cda <_ZN2DB7displayE4User+0x274>
    1cde:	00 c0       	rjmp	.+0      	; 0x1ce0 <_ZN2DB7displayE4User+0x27a>
    1ce0:	27 ff       	sbrs	r18, 7
    1ce2:	dd cf       	rjmp	.-70     	; 0x1c9e <_ZN2DB7displayE4User+0x238>
    1ce4:	6a b9       	out	0x0a, r22	; 10
    1ce6:	23 2f       	mov	r18, r19
    1ce8:	20 7f       	andi	r18, 0xF0	; 240
    1cea:	2b b9       	out	0x0b, r18	; 11
    1cec:	45 b9       	out	0x05, r20	; 5
    1cee:	26 e0       	ldi	r18, 0x06	; 6
    1cf0:	2a 95       	dec	r18
    1cf2:	f1 f7       	brne	.-4      	; 0x1cf0 <_ZN2DB7displayE4User+0x28a>
    1cf4:	00 c0       	rjmp	.+0      	; 0x1cf6 <_ZN2DB7displayE4User+0x290>
    1cf6:	55 b9       	out	0x05, r21	; 5
    1cf8:	76 e0       	ldi	r23, 0x06	; 6
    1cfa:	7a 95       	dec	r23
    1cfc:	f1 f7       	brne	.-4      	; 0x1cfa <_ZN2DB7displayE4User+0x294>
    1cfe:	00 c0       	rjmp	.+0      	; 0x1d00 <_ZN2DB7displayE4User+0x29a>
    1d00:	45 b9       	out	0x05, r20	; 5
    1d02:	26 e0       	ldi	r18, 0x06	; 6
    1d04:	2a 95       	dec	r18
    1d06:	f1 f7       	brne	.-4      	; 0x1d04 <_ZN2DB7displayE4User+0x29e>
    1d08:	00 c0       	rjmp	.+0      	; 0x1d0a <_ZN2DB7displayE4User+0x2a4>
    1d0a:	70 e1       	ldi	r23, 0x10	; 16
    1d0c:	37 9f       	mul	r19, r23
    1d0e:	90 01       	movw	r18, r0
    1d10:	11 24       	eor	r1, r1
    1d12:	2b b9       	out	0x0b, r18	; 11
    1d14:	45 b9       	out	0x05, r20	; 5
    1d16:	26 e0       	ldi	r18, 0x06	; 6
    1d18:	2a 95       	dec	r18
    1d1a:	f1 f7       	brne	.-4      	; 0x1d18 <_ZN2DB7displayE4User+0x2b2>
    1d1c:	00 c0       	rjmp	.+0      	; 0x1d1e <_ZN2DB7displayE4User+0x2b8>
    1d1e:	55 b9       	out	0x05, r21	; 5
    1d20:	36 e0       	ldi	r19, 0x06	; 6
    1d22:	3a 95       	dec	r19
    1d24:	f1 f7       	brne	.-4      	; 0x1d22 <_ZN2DB7displayE4User+0x2bc>
    1d26:	00 c0       	rjmp	.+0      	; 0x1d28 <_ZN2DB7displayE4User+0x2c2>
    1d28:	45 b9       	out	0x05, r20	; 5
    1d2a:	76 e0       	ldi	r23, 0x06	; 6
    1d2c:	7a 95       	dec	r23
    1d2e:	f1 f7       	brne	.-4      	; 0x1d2c <_ZN2DB7displayE4User+0x2c6>
    1d30:	00 c0       	rjmp	.+0      	; 0x1d32 <_ZN2DB7displayE4User+0x2cc>
    1d32:	31 91       	ld	r19, Z+
    1d34:	31 11       	cpse	r19, r1
    1d36:	b3 cf       	rjmp	.-154    	; 0x1c9e <_ZN2DB7displayE4User+0x238>
    1d38:	3b 89       	ldd	r19, Y+19	; 0x13
    1d3a:	33 23       	and	r19, r19
    1d3c:	09 f4       	brne	.+2      	; 0x1d40 <_ZN2DB7displayE4User+0x2da>
    1d3e:	54 c0       	rjmp	.+168    	; 0x1de8 <_ZN2DB7displayE4User+0x382>
    1d40:	fe 01       	movw	r30, r28
    1d42:	74 96       	adiw	r30, 0x14	; 20
    1d44:	82 e0       	ldi	r24, 0x02	; 2
    1d46:	93 e0       	ldi	r25, 0x03	; 3
    1d48:	60 ef       	ldi	r22, 0xF0	; 240
    1d4a:	44 e0       	ldi	r20, 0x04	; 4
    1d4c:	55 e0       	ldi	r21, 0x05	; 5
    1d4e:	1b b8       	out	0x0b, r1	; 11
    1d50:	1a b8       	out	0x0a, r1	; 10
    1d52:	85 b9       	out	0x05, r24	; 5
    1d54:	26 e0       	ldi	r18, 0x06	; 6
    1d56:	2a 95       	dec	r18
    1d58:	f1 f7       	brne	.-4      	; 0x1d56 <_ZN2DB7displayE4User+0x2f0>
    1d5a:	00 c0       	rjmp	.+0      	; 0x1d5c <_ZN2DB7displayE4User+0x2f6>
    1d5c:	95 b9       	out	0x05, r25	; 5
    1d5e:	76 e0       	ldi	r23, 0x06	; 6
    1d60:	7a 95       	dec	r23
    1d62:	f1 f7       	brne	.-4      	; 0x1d60 <_ZN2DB7displayE4User+0x2fa>
    1d64:	00 c0       	rjmp	.+0      	; 0x1d66 <_ZN2DB7displayE4User+0x300>
    1d66:	85 b9       	out	0x05, r24	; 5
    1d68:	26 e0       	ldi	r18, 0x06	; 6
    1d6a:	2a 95       	dec	r18
    1d6c:	f1 f7       	brne	.-4      	; 0x1d6a <_ZN2DB7displayE4User+0x304>
    1d6e:	00 c0       	rjmp	.+0      	; 0x1d70 <_ZN2DB7displayE4User+0x30a>
    1d70:	29 b1       	in	r18, 0x09	; 9
    1d72:	85 b9       	out	0x05, r24	; 5
    1d74:	76 e0       	ldi	r23, 0x06	; 6
    1d76:	7a 95       	dec	r23
    1d78:	f1 f7       	brne	.-4      	; 0x1d76 <_ZN2DB7displayE4User+0x310>
    1d7a:	00 c0       	rjmp	.+0      	; 0x1d7c <_ZN2DB7displayE4User+0x316>
    1d7c:	95 b9       	out	0x05, r25	; 5
    1d7e:	76 e0       	ldi	r23, 0x06	; 6
    1d80:	7a 95       	dec	r23
    1d82:	f1 f7       	brne	.-4      	; 0x1d80 <_ZN2DB7displayE4User+0x31a>
    1d84:	00 c0       	rjmp	.+0      	; 0x1d86 <_ZN2DB7displayE4User+0x320>
    1d86:	85 b9       	out	0x05, r24	; 5
    1d88:	76 e0       	ldi	r23, 0x06	; 6
    1d8a:	7a 95       	dec	r23
    1d8c:	f1 f7       	brne	.-4      	; 0x1d8a <_ZN2DB7displayE4User+0x324>
    1d8e:	00 c0       	rjmp	.+0      	; 0x1d90 <_ZN2DB7displayE4User+0x32a>
    1d90:	27 ff       	sbrs	r18, 7
    1d92:	dd cf       	rjmp	.-70     	; 0x1d4e <_ZN2DB7displayE4User+0x2e8>
    1d94:	6a b9       	out	0x0a, r22	; 10
    1d96:	23 2f       	mov	r18, r19
    1d98:	20 7f       	andi	r18, 0xF0	; 240
    1d9a:	2b b9       	out	0x0b, r18	; 11
    1d9c:	45 b9       	out	0x05, r20	; 5
    1d9e:	26 e0       	ldi	r18, 0x06	; 6
    1da0:	2a 95       	dec	r18
    1da2:	f1 f7       	brne	.-4      	; 0x1da0 <_ZN2DB7displayE4User+0x33a>
    1da4:	00 c0       	rjmp	.+0      	; 0x1da6 <_ZN2DB7displayE4User+0x340>
    1da6:	55 b9       	out	0x05, r21	; 5
    1da8:	76 e0       	ldi	r23, 0x06	; 6
    1daa:	7a 95       	dec	r23
    1dac:	f1 f7       	brne	.-4      	; 0x1daa <_ZN2DB7displayE4User+0x344>
    1dae:	00 c0       	rjmp	.+0      	; 0x1db0 <_ZN2DB7displayE4User+0x34a>
    1db0:	45 b9       	out	0x05, r20	; 5
    1db2:	26 e0       	ldi	r18, 0x06	; 6
    1db4:	2a 95       	dec	r18
    1db6:	f1 f7       	brne	.-4      	; 0x1db4 <_ZN2DB7displayE4User+0x34e>
    1db8:	00 c0       	rjmp	.+0      	; 0x1dba <_ZN2DB7displayE4User+0x354>
    1dba:	70 e1       	ldi	r23, 0x10	; 16
    1dbc:	37 9f       	mul	r19, r23
    1dbe:	90 01       	movw	r18, r0
    1dc0:	11 24       	eor	r1, r1
    1dc2:	2b b9       	out	0x0b, r18	; 11
    1dc4:	45 b9       	out	0x05, r20	; 5
    1dc6:	26 e0       	ldi	r18, 0x06	; 6
    1dc8:	2a 95       	dec	r18
    1dca:	f1 f7       	brne	.-4      	; 0x1dc8 <_ZN2DB7displayE4User+0x362>
    1dcc:	00 c0       	rjmp	.+0      	; 0x1dce <_ZN2DB7displayE4User+0x368>
    1dce:	55 b9       	out	0x05, r21	; 5
    1dd0:	36 e0       	ldi	r19, 0x06	; 6
    1dd2:	3a 95       	dec	r19
    1dd4:	f1 f7       	brne	.-4      	; 0x1dd2 <_ZN2DB7displayE4User+0x36c>
    1dd6:	00 c0       	rjmp	.+0      	; 0x1dd8 <_ZN2DB7displayE4User+0x372>
    1dd8:	45 b9       	out	0x05, r20	; 5
    1dda:	76 e0       	ldi	r23, 0x06	; 6
    1ddc:	7a 95       	dec	r23
    1dde:	f1 f7       	brne	.-4      	; 0x1ddc <_ZN2DB7displayE4User+0x376>
    1de0:	00 c0       	rjmp	.+0      	; 0x1de2 <_ZN2DB7displayE4User+0x37c>
    1de2:	31 91       	ld	r19, Z+
    1de4:	31 11       	cpse	r19, r1
    1de6:	b3 cf       	rjmp	.-154    	; 0x1d4e <_ZN2DB7displayE4User+0x2e8>
    1de8:	df 91       	pop	r29
    1dea:	cf 91       	pop	r28
    1dec:	1f 91       	pop	r17
    1dee:	0f 91       	pop	r16
    1df0:	ff 90       	pop	r15
    1df2:	ef 90       	pop	r14
    1df4:	df 90       	pop	r13
    1df6:	cf 90       	pop	r12
    1df8:	08 95       	ret

00001dfa <main>:
    1dfa:	0e 94 1f 0c 	call	0x183e	; 0x183e <_ZN3LCD4InitEv>
    1dfe:	8c e0       	ldi	r24, 0x0C	; 12
    1e00:	90 e0       	ldi	r25, 0x00	; 0
    1e02:	0e 94 06 0f 	call	0x1e0c	; 0x1e0c <_ZN4UART4InitEj>
    1e06:	0e 94 d7 07 	call	0xfae	; 0xfae <_ZN3CMD5parseEv>
    1e0a:	fd cf       	rjmp	.-6      	; 0x1e06 <main+0xc>

00001e0c <_ZN4UART4InitEj>:
    1e0c:	90 93 c5 00 	sts	0x00C5, r25	; 0x8000c5 <__DATA_REGION_ORIGIN__+0x65>
    1e10:	80 93 c4 00 	sts	0x00C4, r24	; 0x8000c4 <__DATA_REGION_ORIGIN__+0x64>
    1e14:	e0 ec       	ldi	r30, 0xC0	; 192
    1e16:	f0 e0       	ldi	r31, 0x00	; 0
    1e18:	80 81       	ld	r24, Z
    1e1a:	82 60       	ori	r24, 0x02	; 2
    1e1c:	80 83       	st	Z, r24
    1e1e:	88 e1       	ldi	r24, 0x18	; 24
    1e20:	80 93 c1 00 	sts	0x00C1, r24	; 0x8000c1 <__DATA_REGION_ORIGIN__+0x61>
    1e24:	86 e0       	ldi	r24, 0x06	; 6
    1e26:	80 93 c2 00 	sts	0x00C2, r24	; 0x8000c2 <__DATA_REGION_ORIGIN__+0x62>
    1e2a:	08 95       	ret

00001e2c <_ZN4UART7ReceiveEv>:
    1e2c:	80 91 c0 00 	lds	r24, 0x00C0	; 0x8000c0 <__DATA_REGION_ORIGIN__+0x60>
    1e30:	87 ff       	sbrs	r24, 7
    1e32:	fc cf       	rjmp	.-8      	; 0x1e2c <_ZN4UART7ReceiveEv>
    1e34:	80 91 c6 00 	lds	r24, 0x00C6	; 0x8000c6 <__DATA_REGION_ORIGIN__+0x66>
    1e38:	08 95       	ret

00001e3a <_ZN4UART4SendEh>:
    1e3a:	90 91 c0 00 	lds	r25, 0x00C0	; 0x8000c0 <__DATA_REGION_ORIGIN__+0x60>
    1e3e:	95 ff       	sbrs	r25, 5
    1e40:	fc cf       	rjmp	.-8      	; 0x1e3a <_ZN4UART4SendEh>
    1e42:	80 93 c6 00 	sts	0x00C6, r24	; 0x8000c6 <__DATA_REGION_ORIGIN__+0x66>
    1e46:	08 95       	ret

00001e48 <_ZN3SIO6printfEl>:
    1e48:	cf 92       	push	r12
    1e4a:	df 92       	push	r13
    1e4c:	ef 92       	push	r14
    1e4e:	ff 92       	push	r15
    1e50:	cf 93       	push	r28
    1e52:	df 93       	push	r29
    1e54:	6b 01       	movw	r12, r22
    1e56:	7c 01       	movw	r14, r24
    1e58:	8a e0       	ldi	r24, 0x0A	; 10
    1e5a:	90 e0       	ldi	r25, 0x00	; 0
    1e5c:	0e 94 32 10 	call	0x2064	; 0x2064 <malloc>
    1e60:	ec 01       	movw	r28, r24
    1e62:	2a e0       	ldi	r18, 0x0A	; 10
    1e64:	ac 01       	movw	r20, r24
    1e66:	c7 01       	movw	r24, r14
    1e68:	b6 01       	movw	r22, r12
    1e6a:	0e 94 b6 11 	call	0x236c	; 0x236c <__ltoa_ncheck>
    1e6e:	fc 01       	movw	r30, r24
    1e70:	20 81       	ld	r18, Z
    1e72:	22 23       	and	r18, r18
    1e74:	59 f0       	breq	.+22     	; 0x1e8c <_ZN3SIO6printfEl+0x44>
    1e76:	fc 01       	movw	r30, r24
    1e78:	31 96       	adiw	r30, 0x01	; 1
    1e7a:	90 91 c0 00 	lds	r25, 0x00C0	; 0x8000c0 <__DATA_REGION_ORIGIN__+0x60>
    1e7e:	95 ff       	sbrs	r25, 5
    1e80:	fc cf       	rjmp	.-8      	; 0x1e7a <_ZN3SIO6printfEl+0x32>
    1e82:	20 93 c6 00 	sts	0x00C6, r18	; 0x8000c6 <__DATA_REGION_ORIGIN__+0x66>
    1e86:	21 91       	ld	r18, Z+
    1e88:	21 11       	cpse	r18, r1
    1e8a:	f7 cf       	rjmp	.-18     	; 0x1e7a <_ZN3SIO6printfEl+0x32>
    1e8c:	ce 01       	movw	r24, r28
    1e8e:	df 91       	pop	r29
    1e90:	cf 91       	pop	r28
    1e92:	ff 90       	pop	r15
    1e94:	ef 90       	pop	r14
    1e96:	df 90       	pop	r13
    1e98:	cf 90       	pop	r12
    1e9a:	0c 94 ca 10 	jmp	0x2194	; 0x2194 <free>

00001e9e <_ZN3SIO6printfEPKc>:
    1e9e:	fc 01       	movw	r30, r24
    1ea0:	20 81       	ld	r18, Z
    1ea2:	22 23       	and	r18, r18
    1ea4:	51 f0       	breq	.+20     	; 0x1eba <_ZN3SIO6printfEPKc+0x1c>
    1ea6:	31 96       	adiw	r30, 0x01	; 1
    1ea8:	90 91 c0 00 	lds	r25, 0x00C0	; 0x8000c0 <__DATA_REGION_ORIGIN__+0x60>
    1eac:	95 ff       	sbrs	r25, 5
    1eae:	fc cf       	rjmp	.-8      	; 0x1ea8 <_ZN3SIO6printfEPKc+0xa>
    1eb0:	20 93 c6 00 	sts	0x00C6, r18	; 0x8000c6 <__DATA_REGION_ORIGIN__+0x66>
    1eb4:	21 91       	ld	r18, Z+
    1eb6:	21 11       	cpse	r18, r1
    1eb8:	f7 cf       	rjmp	.-18     	; 0x1ea8 <_ZN3SIO6printfEPKc+0xa>
    1eba:	08 95       	ret

00001ebc <_ZN3SIO6printfE4User>:
    1ebc:	cf 92       	push	r12
    1ebe:	df 92       	push	r13
    1ec0:	ef 92       	push	r14
    1ec2:	ff 92       	push	r15
    1ec4:	0f 93       	push	r16
    1ec6:	1f 93       	push	r17
    1ec8:	cf 93       	push	r28
    1eca:	df 93       	push	r29
    1ecc:	cd b7       	in	r28, 0x3d	; 61
    1ece:	de b7       	in	r29, 0x3e	; 62
    1ed0:	e8 ea       	ldi	r30, 0xA8	; 168
    1ed2:	f1 e0       	ldi	r31, 0x01	; 1
    1ed4:	99 e4       	ldi	r25, 0x49	; 73
    1ed6:	80 91 c0 00 	lds	r24, 0x00C0	; 0x8000c0 <__DATA_REGION_ORIGIN__+0x60>
    1eda:	85 ff       	sbrs	r24, 5
    1edc:	fc cf       	rjmp	.-8      	; 0x1ed6 <_ZN3SIO6printfE4User+0x1a>
    1ede:	90 93 c6 00 	sts	0x00C6, r25	; 0x8000c6 <__DATA_REGION_ORIGIN__+0x66>
    1ee2:	91 91       	ld	r25, Z+
    1ee4:	91 11       	cpse	r25, r1
    1ee6:	f7 cf       	rjmp	.-18     	; 0x1ed6 <_ZN3SIO6printfE4User+0x1a>
    1ee8:	cb 84       	ldd	r12, Y+11	; 0x0b
    1eea:	dc 84       	ldd	r13, Y+12	; 0x0c
    1eec:	ed 84       	ldd	r14, Y+13	; 0x0d
    1eee:	fe 84       	ldd	r15, Y+14	; 0x0e
    1ef0:	8a e0       	ldi	r24, 0x0A	; 10
    1ef2:	90 e0       	ldi	r25, 0x00	; 0
    1ef4:	0e 94 32 10 	call	0x2064	; 0x2064 <malloc>
    1ef8:	8c 01       	movw	r16, r24
    1efa:	2a e0       	ldi	r18, 0x0A	; 10
    1efc:	ac 01       	movw	r20, r24
    1efe:	c7 01       	movw	r24, r14
    1f00:	b6 01       	movw	r22, r12
    1f02:	0e 94 b6 11 	call	0x236c	; 0x236c <__ltoa_ncheck>
    1f06:	fc 01       	movw	r30, r24
    1f08:	20 81       	ld	r18, Z
    1f0a:	22 23       	and	r18, r18
    1f0c:	51 f0       	breq	.+20     	; 0x1f22 <_ZN3SIO6printfE4User+0x66>
    1f0e:	31 96       	adiw	r30, 0x01	; 1
    1f10:	90 91 c0 00 	lds	r25, 0x00C0	; 0x8000c0 <__DATA_REGION_ORIGIN__+0x60>
    1f14:	95 ff       	sbrs	r25, 5
    1f16:	fc cf       	rjmp	.-8      	; 0x1f10 <_ZN3SIO6printfE4User+0x54>
    1f18:	20 93 c6 00 	sts	0x00C6, r18	; 0x8000c6 <__DATA_REGION_ORIGIN__+0x66>
    1f1c:	21 91       	ld	r18, Z+
    1f1e:	21 11       	cpse	r18, r1
    1f20:	f7 cf       	rjmp	.-18     	; 0x1f10 <_ZN3SIO6printfE4User+0x54>
    1f22:	c8 01       	movw	r24, r16
    1f24:	0e 94 ca 10 	call	0x2194	; 0x2194 <free>
    1f28:	80 91 c0 00 	lds	r24, 0x00C0	; 0x8000c0 <__DATA_REGION_ORIGIN__+0x60>
    1f2c:	85 ff       	sbrs	r24, 5
    1f2e:	fc cf       	rjmp	.-8      	; 0x1f28 <_ZN3SIO6printfE4User+0x6c>
    1f30:	8d e0       	ldi	r24, 0x0D	; 13
    1f32:	80 93 c6 00 	sts	0x00C6, r24	; 0x8000c6 <__DATA_REGION_ORIGIN__+0x66>
    1f36:	e4 eb       	ldi	r30, 0xB4	; 180
    1f38:	f1 e0       	ldi	r31, 0x01	; 1
    1f3a:	94 e4       	ldi	r25, 0x44	; 68
    1f3c:	80 91 c0 00 	lds	r24, 0x00C0	; 0x8000c0 <__DATA_REGION_ORIGIN__+0x60>
    1f40:	85 ff       	sbrs	r24, 5
    1f42:	fc cf       	rjmp	.-8      	; 0x1f3c <_ZN3SIO6printfE4User+0x80>
    1f44:	90 93 c6 00 	sts	0x00C6, r25	; 0x8000c6 <__DATA_REGION_ORIGIN__+0x66>
    1f48:	91 91       	ld	r25, Z+
    1f4a:	91 11       	cpse	r25, r1
    1f4c:	f7 cf       	rjmp	.-18     	; 0x1f3c <_ZN3SIO6printfE4User+0x80>
    1f4e:	9b 89       	ldd	r25, Y+19	; 0x13
    1f50:	99 23       	and	r25, r25
    1f52:	59 f0       	breq	.+22     	; 0x1f6a <_ZN3SIO6printfE4User+0xae>
    1f54:	fe 01       	movw	r30, r28
    1f56:	74 96       	adiw	r30, 0x14	; 20
    1f58:	80 91 c0 00 	lds	r24, 0x00C0	; 0x8000c0 <__DATA_REGION_ORIGIN__+0x60>
    1f5c:	85 ff       	sbrs	r24, 5
    1f5e:	fc cf       	rjmp	.-8      	; 0x1f58 <_ZN3SIO6printfE4User+0x9c>
    1f60:	90 93 c6 00 	sts	0x00C6, r25	; 0x8000c6 <__DATA_REGION_ORIGIN__+0x66>
    1f64:	91 91       	ld	r25, Z+
    1f66:	91 11       	cpse	r25, r1
    1f68:	f7 cf       	rjmp	.-18     	; 0x1f58 <_ZN3SIO6printfE4User+0x9c>
    1f6a:	80 91 c0 00 	lds	r24, 0x00C0	; 0x8000c0 <__DATA_REGION_ORIGIN__+0x60>
    1f6e:	85 ff       	sbrs	r24, 5
    1f70:	fc cf       	rjmp	.-8      	; 0x1f6a <_ZN3SIO6printfE4User+0xae>
    1f72:	8d e0       	ldi	r24, 0x0D	; 13
    1f74:	80 93 c6 00 	sts	0x00C6, r24	; 0x8000c6 <__DATA_REGION_ORIGIN__+0x66>
    1f78:	df 91       	pop	r29
    1f7a:	cf 91       	pop	r28
    1f7c:	1f 91       	pop	r17
    1f7e:	0f 91       	pop	r16
    1f80:	ff 90       	pop	r15
    1f82:	ef 90       	pop	r14
    1f84:	df 90       	pop	r13
    1f86:	cf 90       	pop	r12
    1f88:	08 95       	ret

00001f8a <_ZN3SIO5scanfEv>:
    1f8a:	61 e0       	ldi	r22, 0x01	; 1
    1f8c:	70 e0       	ldi	r23, 0x00	; 0
    1f8e:	84 e1       	ldi	r24, 0x14	; 20
    1f90:	90 e0       	ldi	r25, 0x00	; 0
    1f92:	0e 94 16 10 	call	0x202c	; 0x202c <calloc>
    1f96:	bc 01       	movw	r22, r24
    1f98:	fc 01       	movw	r30, r24
    1f9a:	ac 01       	movw	r20, r24
    1f9c:	4c 5e       	subi	r20, 0xEC	; 236
    1f9e:	5f 4f       	sbci	r21, 0xFF	; 255
    1fa0:	90 91 c0 00 	lds	r25, 0x00C0	; 0x8000c0 <__DATA_REGION_ORIGIN__+0x60>
    1fa4:	97 ff       	sbrs	r25, 7
    1fa6:	fc cf       	rjmp	.-8      	; 0x1fa0 <_ZN3SIO5scanfEv+0x16>
    1fa8:	20 91 c6 00 	lds	r18, 0x00C6	; 0x8000c6 <__DATA_REGION_ORIGIN__+0x66>
    1fac:	2d 30       	cpi	r18, 0x0D	; 13
    1fae:	61 f0       	breq	.+24     	; 0x1fc8 <_ZN3SIO5scanfEv+0x3e>
    1fb0:	90 91 c0 00 	lds	r25, 0x00C0	; 0x8000c0 <__DATA_REGION_ORIGIN__+0x60>
    1fb4:	95 ff       	sbrs	r25, 5
    1fb6:	fc cf       	rjmp	.-8      	; 0x1fb0 <_ZN3SIO5scanfEv+0x26>
    1fb8:	20 93 c6 00 	sts	0x00C6, r18	; 0x8000c6 <__DATA_REGION_ORIGIN__+0x66>
    1fbc:	21 93       	st	Z+, r18
    1fbe:	e4 17       	cp	r30, r20
    1fc0:	f5 07       	cpc	r31, r21
    1fc2:	71 f7       	brne	.-36     	; 0x1fa0 <_ZN3SIO5scanfEv+0x16>
    1fc4:	cb 01       	movw	r24, r22
    1fc6:	08 95       	ret
    1fc8:	90 91 c0 00 	lds	r25, 0x00C0	; 0x8000c0 <__DATA_REGION_ORIGIN__+0x60>
    1fcc:	95 ff       	sbrs	r25, 5
    1fce:	fc cf       	rjmp	.-8      	; 0x1fc8 <_ZN3SIO5scanfEv+0x3e>
    1fd0:	8d e0       	ldi	r24, 0x0D	; 13
    1fd2:	80 93 c6 00 	sts	0x00C6, r24	; 0x8000c6 <__DATA_REGION_ORIGIN__+0x66>
    1fd6:	cb 01       	movw	r24, r22
    1fd8:	08 95       	ret

00001fda <_ZN3SIO6_scanfEv>:
    1fda:	61 e0       	ldi	r22, 0x01	; 1
    1fdc:	70 e0       	ldi	r23, 0x00	; 0
    1fde:	84 e1       	ldi	r24, 0x14	; 20
    1fe0:	90 e0       	ldi	r25, 0x00	; 0
    1fe2:	0e 94 16 10 	call	0x202c	; 0x202c <calloc>
    1fe6:	bc 01       	movw	r22, r24
    1fe8:	fc 01       	movw	r30, r24
    1fea:	ac 01       	movw	r20, r24
    1fec:	4c 5e       	subi	r20, 0xEC	; 236
    1fee:	5f 4f       	sbci	r21, 0xFF	; 255
    1ff0:	3a e2       	ldi	r19, 0x2A	; 42
    1ff2:	90 91 c0 00 	lds	r25, 0x00C0	; 0x8000c0 <__DATA_REGION_ORIGIN__+0x60>
    1ff6:	97 ff       	sbrs	r25, 7
    1ff8:	fc cf       	rjmp	.-8      	; 0x1ff2 <_ZN3SIO6_scanfEv+0x18>
    1ffa:	20 91 c6 00 	lds	r18, 0x00C6	; 0x8000c6 <__DATA_REGION_ORIGIN__+0x66>
    1ffe:	2d 30       	cpi	r18, 0x0D	; 13
    2000:	61 f0       	breq	.+24     	; 0x201a <_ZN3SIO6_scanfEv+0x40>
    2002:	90 91 c0 00 	lds	r25, 0x00C0	; 0x8000c0 <__DATA_REGION_ORIGIN__+0x60>
    2006:	95 ff       	sbrs	r25, 5
    2008:	fc cf       	rjmp	.-8      	; 0x2002 <_ZN3SIO6_scanfEv+0x28>
    200a:	30 93 c6 00 	sts	0x00C6, r19	; 0x8000c6 <__DATA_REGION_ORIGIN__+0x66>
    200e:	21 93       	st	Z+, r18
    2010:	e4 17       	cp	r30, r20
    2012:	f5 07       	cpc	r31, r21
    2014:	71 f7       	brne	.-36     	; 0x1ff2 <_ZN3SIO6_scanfEv+0x18>
    2016:	cb 01       	movw	r24, r22
    2018:	08 95       	ret
    201a:	90 91 c0 00 	lds	r25, 0x00C0	; 0x8000c0 <__DATA_REGION_ORIGIN__+0x60>
    201e:	95 ff       	sbrs	r25, 5
    2020:	fc cf       	rjmp	.-8      	; 0x201a <_ZN3SIO6_scanfEv+0x40>
    2022:	8d e0       	ldi	r24, 0x0D	; 13
    2024:	80 93 c6 00 	sts	0x00C6, r24	; 0x8000c6 <__DATA_REGION_ORIGIN__+0x66>
    2028:	cb 01       	movw	r24, r22
    202a:	08 95       	ret

0000202c <calloc>:
    202c:	0f 93       	push	r16
    202e:	1f 93       	push	r17
    2030:	cf 93       	push	r28
    2032:	df 93       	push	r29
    2034:	86 9f       	mul	r24, r22
    2036:	80 01       	movw	r16, r0
    2038:	87 9f       	mul	r24, r23
    203a:	10 0d       	add	r17, r0
    203c:	96 9f       	mul	r25, r22
    203e:	10 0d       	add	r17, r0
    2040:	11 24       	eor	r1, r1
    2042:	c8 01       	movw	r24, r16
    2044:	0e 94 32 10 	call	0x2064	; 0x2064 <malloc>
    2048:	ec 01       	movw	r28, r24
    204a:	00 97       	sbiw	r24, 0x00	; 0
    204c:	29 f0       	breq	.+10     	; 0x2058 <calloc+0x2c>
    204e:	a8 01       	movw	r20, r16
    2050:	60 e0       	ldi	r22, 0x00	; 0
    2052:	70 e0       	ldi	r23, 0x00	; 0
    2054:	0e 94 7f 11 	call	0x22fe	; 0x22fe <memset>
    2058:	ce 01       	movw	r24, r28
    205a:	df 91       	pop	r29
    205c:	cf 91       	pop	r28
    205e:	1f 91       	pop	r17
    2060:	0f 91       	pop	r16
    2062:	08 95       	ret

00002064 <malloc>:
    2064:	0f 93       	push	r16
    2066:	1f 93       	push	r17
    2068:	cf 93       	push	r28
    206a:	df 93       	push	r29
    206c:	82 30       	cpi	r24, 0x02	; 2
    206e:	91 05       	cpc	r25, r1
    2070:	10 f4       	brcc	.+4      	; 0x2076 <malloc+0x12>
    2072:	82 e0       	ldi	r24, 0x02	; 2
    2074:	90 e0       	ldi	r25, 0x00	; 0
    2076:	e0 91 be 01 	lds	r30, 0x01BE	; 0x8001be <__flp>
    207a:	f0 91 bf 01 	lds	r31, 0x01BF	; 0x8001bf <__flp+0x1>
    207e:	20 e0       	ldi	r18, 0x00	; 0
    2080:	30 e0       	ldi	r19, 0x00	; 0
    2082:	a0 e0       	ldi	r26, 0x00	; 0
    2084:	b0 e0       	ldi	r27, 0x00	; 0
    2086:	30 97       	sbiw	r30, 0x00	; 0
    2088:	19 f1       	breq	.+70     	; 0x20d0 <malloc+0x6c>
    208a:	40 81       	ld	r20, Z
    208c:	51 81       	ldd	r21, Z+1	; 0x01
    208e:	02 81       	ldd	r16, Z+2	; 0x02
    2090:	13 81       	ldd	r17, Z+3	; 0x03
    2092:	48 17       	cp	r20, r24
    2094:	59 07       	cpc	r21, r25
    2096:	c8 f0       	brcs	.+50     	; 0x20ca <malloc+0x66>
    2098:	84 17       	cp	r24, r20
    209a:	95 07       	cpc	r25, r21
    209c:	69 f4       	brne	.+26     	; 0x20b8 <malloc+0x54>
    209e:	10 97       	sbiw	r26, 0x00	; 0
    20a0:	31 f0       	breq	.+12     	; 0x20ae <malloc+0x4a>
    20a2:	12 96       	adiw	r26, 0x02	; 2
    20a4:	0c 93       	st	X, r16
    20a6:	12 97       	sbiw	r26, 0x02	; 2
    20a8:	13 96       	adiw	r26, 0x03	; 3
    20aa:	1c 93       	st	X, r17
    20ac:	27 c0       	rjmp	.+78     	; 0x20fc <malloc+0x98>
    20ae:	00 93 be 01 	sts	0x01BE, r16	; 0x8001be <__flp>
    20b2:	10 93 bf 01 	sts	0x01BF, r17	; 0x8001bf <__flp+0x1>
    20b6:	22 c0       	rjmp	.+68     	; 0x20fc <malloc+0x98>
    20b8:	21 15       	cp	r18, r1
    20ba:	31 05       	cpc	r19, r1
    20bc:	19 f0       	breq	.+6      	; 0x20c4 <malloc+0x60>
    20be:	42 17       	cp	r20, r18
    20c0:	53 07       	cpc	r21, r19
    20c2:	18 f4       	brcc	.+6      	; 0x20ca <malloc+0x66>
    20c4:	9a 01       	movw	r18, r20
    20c6:	bd 01       	movw	r22, r26
    20c8:	ef 01       	movw	r28, r30
    20ca:	df 01       	movw	r26, r30
    20cc:	f8 01       	movw	r30, r16
    20ce:	db cf       	rjmp	.-74     	; 0x2086 <malloc+0x22>
    20d0:	21 15       	cp	r18, r1
    20d2:	31 05       	cpc	r19, r1
    20d4:	f9 f0       	breq	.+62     	; 0x2114 <malloc+0xb0>
    20d6:	28 1b       	sub	r18, r24
    20d8:	39 0b       	sbc	r19, r25
    20da:	24 30       	cpi	r18, 0x04	; 4
    20dc:	31 05       	cpc	r19, r1
    20de:	80 f4       	brcc	.+32     	; 0x2100 <malloc+0x9c>
    20e0:	8a 81       	ldd	r24, Y+2	; 0x02
    20e2:	9b 81       	ldd	r25, Y+3	; 0x03
    20e4:	61 15       	cp	r22, r1
    20e6:	71 05       	cpc	r23, r1
    20e8:	21 f0       	breq	.+8      	; 0x20f2 <malloc+0x8e>
    20ea:	fb 01       	movw	r30, r22
    20ec:	93 83       	std	Z+3, r25	; 0x03
    20ee:	82 83       	std	Z+2, r24	; 0x02
    20f0:	04 c0       	rjmp	.+8      	; 0x20fa <malloc+0x96>
    20f2:	90 93 bf 01 	sts	0x01BF, r25	; 0x8001bf <__flp+0x1>
    20f6:	80 93 be 01 	sts	0x01BE, r24	; 0x8001be <__flp>
    20fa:	fe 01       	movw	r30, r28
    20fc:	32 96       	adiw	r30, 0x02	; 2
    20fe:	44 c0       	rjmp	.+136    	; 0x2188 <malloc+0x124>
    2100:	fe 01       	movw	r30, r28
    2102:	e2 0f       	add	r30, r18
    2104:	f3 1f       	adc	r31, r19
    2106:	81 93       	st	Z+, r24
    2108:	91 93       	st	Z+, r25
    210a:	22 50       	subi	r18, 0x02	; 2
    210c:	31 09       	sbc	r19, r1
    210e:	39 83       	std	Y+1, r19	; 0x01
    2110:	28 83       	st	Y, r18
    2112:	3a c0       	rjmp	.+116    	; 0x2188 <malloc+0x124>
    2114:	20 91 bc 01 	lds	r18, 0x01BC	; 0x8001bc <__brkval>
    2118:	30 91 bd 01 	lds	r19, 0x01BD	; 0x8001bd <__brkval+0x1>
    211c:	23 2b       	or	r18, r19
    211e:	41 f4       	brne	.+16     	; 0x2130 <malloc+0xcc>
    2120:	20 91 02 01 	lds	r18, 0x0102	; 0x800102 <__malloc_heap_start>
    2124:	30 91 03 01 	lds	r19, 0x0103	; 0x800103 <__malloc_heap_start+0x1>
    2128:	30 93 bd 01 	sts	0x01BD, r19	; 0x8001bd <__brkval+0x1>
    212c:	20 93 bc 01 	sts	0x01BC, r18	; 0x8001bc <__brkval>
    2130:	20 91 00 01 	lds	r18, 0x0100	; 0x800100 <__data_start>
    2134:	30 91 01 01 	lds	r19, 0x0101	; 0x800101 <__data_start+0x1>
    2138:	21 15       	cp	r18, r1
    213a:	31 05       	cpc	r19, r1
    213c:	41 f4       	brne	.+16     	; 0x214e <malloc+0xea>
    213e:	2d b7       	in	r18, 0x3d	; 61
    2140:	3e b7       	in	r19, 0x3e	; 62
    2142:	40 91 04 01 	lds	r20, 0x0104	; 0x800104 <__malloc_margin>
    2146:	50 91 05 01 	lds	r21, 0x0105	; 0x800105 <__malloc_margin+0x1>
    214a:	24 1b       	sub	r18, r20
    214c:	35 0b       	sbc	r19, r21
    214e:	e0 91 bc 01 	lds	r30, 0x01BC	; 0x8001bc <__brkval>
    2152:	f0 91 bd 01 	lds	r31, 0x01BD	; 0x8001bd <__brkval+0x1>
    2156:	e2 17       	cp	r30, r18
    2158:	f3 07       	cpc	r31, r19
    215a:	a0 f4       	brcc	.+40     	; 0x2184 <malloc+0x120>
    215c:	2e 1b       	sub	r18, r30
    215e:	3f 0b       	sbc	r19, r31
    2160:	28 17       	cp	r18, r24
    2162:	39 07       	cpc	r19, r25
    2164:	78 f0       	brcs	.+30     	; 0x2184 <malloc+0x120>
    2166:	ac 01       	movw	r20, r24
    2168:	4e 5f       	subi	r20, 0xFE	; 254
    216a:	5f 4f       	sbci	r21, 0xFF	; 255
    216c:	24 17       	cp	r18, r20
    216e:	35 07       	cpc	r19, r21
    2170:	48 f0       	brcs	.+18     	; 0x2184 <malloc+0x120>
    2172:	4e 0f       	add	r20, r30
    2174:	5f 1f       	adc	r21, r31
    2176:	50 93 bd 01 	sts	0x01BD, r21	; 0x8001bd <__brkval+0x1>
    217a:	40 93 bc 01 	sts	0x01BC, r20	; 0x8001bc <__brkval>
    217e:	81 93       	st	Z+, r24
    2180:	91 93       	st	Z+, r25
    2182:	02 c0       	rjmp	.+4      	; 0x2188 <malloc+0x124>
    2184:	e0 e0       	ldi	r30, 0x00	; 0
    2186:	f0 e0       	ldi	r31, 0x00	; 0
    2188:	cf 01       	movw	r24, r30
    218a:	df 91       	pop	r29
    218c:	cf 91       	pop	r28
    218e:	1f 91       	pop	r17
    2190:	0f 91       	pop	r16
    2192:	08 95       	ret

00002194 <free>:
    2194:	cf 93       	push	r28
    2196:	df 93       	push	r29
    2198:	00 97       	sbiw	r24, 0x00	; 0
    219a:	09 f4       	brne	.+2      	; 0x219e <free+0xa>
    219c:	81 c0       	rjmp	.+258    	; 0x22a0 <free+0x10c>
    219e:	fc 01       	movw	r30, r24
    21a0:	32 97       	sbiw	r30, 0x02	; 2
    21a2:	13 82       	std	Z+3, r1	; 0x03
    21a4:	12 82       	std	Z+2, r1	; 0x02
    21a6:	a0 91 be 01 	lds	r26, 0x01BE	; 0x8001be <__flp>
    21aa:	b0 91 bf 01 	lds	r27, 0x01BF	; 0x8001bf <__flp+0x1>
    21ae:	10 97       	sbiw	r26, 0x00	; 0
    21b0:	81 f4       	brne	.+32     	; 0x21d2 <free+0x3e>
    21b2:	20 81       	ld	r18, Z
    21b4:	31 81       	ldd	r19, Z+1	; 0x01
    21b6:	82 0f       	add	r24, r18
    21b8:	93 1f       	adc	r25, r19
    21ba:	20 91 bc 01 	lds	r18, 0x01BC	; 0x8001bc <__brkval>
    21be:	30 91 bd 01 	lds	r19, 0x01BD	; 0x8001bd <__brkval+0x1>
    21c2:	28 17       	cp	r18, r24
    21c4:	39 07       	cpc	r19, r25
    21c6:	51 f5       	brne	.+84     	; 0x221c <free+0x88>
    21c8:	f0 93 bd 01 	sts	0x01BD, r31	; 0x8001bd <__brkval+0x1>
    21cc:	e0 93 bc 01 	sts	0x01BC, r30	; 0x8001bc <__brkval>
    21d0:	67 c0       	rjmp	.+206    	; 0x22a0 <free+0x10c>
    21d2:	ed 01       	movw	r28, r26
    21d4:	20 e0       	ldi	r18, 0x00	; 0
    21d6:	30 e0       	ldi	r19, 0x00	; 0
    21d8:	ce 17       	cp	r28, r30
    21da:	df 07       	cpc	r29, r31
    21dc:	40 f4       	brcc	.+16     	; 0x21ee <free+0x5a>
    21de:	4a 81       	ldd	r20, Y+2	; 0x02
    21e0:	5b 81       	ldd	r21, Y+3	; 0x03
    21e2:	9e 01       	movw	r18, r28
    21e4:	41 15       	cp	r20, r1
    21e6:	51 05       	cpc	r21, r1
    21e8:	f1 f0       	breq	.+60     	; 0x2226 <free+0x92>
    21ea:	ea 01       	movw	r28, r20
    21ec:	f5 cf       	rjmp	.-22     	; 0x21d8 <free+0x44>
    21ee:	d3 83       	std	Z+3, r29	; 0x03
    21f0:	c2 83       	std	Z+2, r28	; 0x02
    21f2:	40 81       	ld	r20, Z
    21f4:	51 81       	ldd	r21, Z+1	; 0x01
    21f6:	84 0f       	add	r24, r20
    21f8:	95 1f       	adc	r25, r21
    21fa:	c8 17       	cp	r28, r24
    21fc:	d9 07       	cpc	r29, r25
    21fe:	59 f4       	brne	.+22     	; 0x2216 <free+0x82>
    2200:	88 81       	ld	r24, Y
    2202:	99 81       	ldd	r25, Y+1	; 0x01
    2204:	84 0f       	add	r24, r20
    2206:	95 1f       	adc	r25, r21
    2208:	02 96       	adiw	r24, 0x02	; 2
    220a:	91 83       	std	Z+1, r25	; 0x01
    220c:	80 83       	st	Z, r24
    220e:	8a 81       	ldd	r24, Y+2	; 0x02
    2210:	9b 81       	ldd	r25, Y+3	; 0x03
    2212:	93 83       	std	Z+3, r25	; 0x03
    2214:	82 83       	std	Z+2, r24	; 0x02
    2216:	21 15       	cp	r18, r1
    2218:	31 05       	cpc	r19, r1
    221a:	29 f4       	brne	.+10     	; 0x2226 <free+0x92>
    221c:	f0 93 bf 01 	sts	0x01BF, r31	; 0x8001bf <__flp+0x1>
    2220:	e0 93 be 01 	sts	0x01BE, r30	; 0x8001be <__flp>
    2224:	3d c0       	rjmp	.+122    	; 0x22a0 <free+0x10c>
    2226:	e9 01       	movw	r28, r18
    2228:	fb 83       	std	Y+3, r31	; 0x03
    222a:	ea 83       	std	Y+2, r30	; 0x02
    222c:	49 91       	ld	r20, Y+
    222e:	59 91       	ld	r21, Y+
    2230:	c4 0f       	add	r28, r20
    2232:	d5 1f       	adc	r29, r21
    2234:	ec 17       	cp	r30, r28
    2236:	fd 07       	cpc	r31, r29
    2238:	61 f4       	brne	.+24     	; 0x2252 <free+0xbe>
    223a:	80 81       	ld	r24, Z
    223c:	91 81       	ldd	r25, Z+1	; 0x01
    223e:	84 0f       	add	r24, r20
    2240:	95 1f       	adc	r25, r21
    2242:	02 96       	adiw	r24, 0x02	; 2
    2244:	e9 01       	movw	r28, r18
    2246:	99 83       	std	Y+1, r25	; 0x01
    2248:	88 83       	st	Y, r24
    224a:	82 81       	ldd	r24, Z+2	; 0x02
    224c:	93 81       	ldd	r25, Z+3	; 0x03
    224e:	9b 83       	std	Y+3, r25	; 0x03
    2250:	8a 83       	std	Y+2, r24	; 0x02
    2252:	e0 e0       	ldi	r30, 0x00	; 0
    2254:	f0 e0       	ldi	r31, 0x00	; 0
    2256:	12 96       	adiw	r26, 0x02	; 2
    2258:	8d 91       	ld	r24, X+
    225a:	9c 91       	ld	r25, X
    225c:	13 97       	sbiw	r26, 0x03	; 3
    225e:	00 97       	sbiw	r24, 0x00	; 0
    2260:	19 f0       	breq	.+6      	; 0x2268 <free+0xd4>
    2262:	fd 01       	movw	r30, r26
    2264:	dc 01       	movw	r26, r24
    2266:	f7 cf       	rjmp	.-18     	; 0x2256 <free+0xc2>
    2268:	8d 91       	ld	r24, X+
    226a:	9c 91       	ld	r25, X
    226c:	11 97       	sbiw	r26, 0x01	; 1
    226e:	9d 01       	movw	r18, r26
    2270:	2e 5f       	subi	r18, 0xFE	; 254
    2272:	3f 4f       	sbci	r19, 0xFF	; 255
    2274:	82 0f       	add	r24, r18
    2276:	93 1f       	adc	r25, r19
    2278:	20 91 bc 01 	lds	r18, 0x01BC	; 0x8001bc <__brkval>
    227c:	30 91 bd 01 	lds	r19, 0x01BD	; 0x8001bd <__brkval+0x1>
    2280:	28 17       	cp	r18, r24
    2282:	39 07       	cpc	r19, r25
    2284:	69 f4       	brne	.+26     	; 0x22a0 <free+0x10c>
    2286:	30 97       	sbiw	r30, 0x00	; 0
    2288:	29 f4       	brne	.+10     	; 0x2294 <free+0x100>
    228a:	10 92 bf 01 	sts	0x01BF, r1	; 0x8001bf <__flp+0x1>
    228e:	10 92 be 01 	sts	0x01BE, r1	; 0x8001be <__flp>
    2292:	02 c0       	rjmp	.+4      	; 0x2298 <free+0x104>
    2294:	13 82       	std	Z+3, r1	; 0x03
    2296:	12 82       	std	Z+2, r1	; 0x02
    2298:	b0 93 bd 01 	sts	0x01BD, r27	; 0x8001bd <__brkval+0x1>
    229c:	a0 93 bc 01 	sts	0x01BC, r26	; 0x8001bc <__brkval>
    22a0:	df 91       	pop	r29
    22a2:	cf 91       	pop	r28
    22a4:	08 95       	ret

000022a6 <atol>:
    22a6:	1f 93       	push	r17
    22a8:	fc 01       	movw	r30, r24
    22aa:	99 27       	eor	r25, r25
    22ac:	88 27       	eor	r24, r24
    22ae:	bc 01       	movw	r22, r24
    22b0:	e8 94       	clt
    22b2:	11 91       	ld	r17, Z+
    22b4:	10 32       	cpi	r17, 0x20	; 32
    22b6:	e9 f3       	breq	.-6      	; 0x22b2 <atol+0xc>
    22b8:	19 30       	cpi	r17, 0x09	; 9
    22ba:	10 f0       	brcs	.+4      	; 0x22c0 <atol+0x1a>
    22bc:	1e 30       	cpi	r17, 0x0E	; 14
    22be:	c8 f3       	brcs	.-14     	; 0x22b2 <atol+0xc>
    22c0:	1b 32       	cpi	r17, 0x2B	; 43
    22c2:	51 f0       	breq	.+20     	; 0x22d8 <atol+0x32>
    22c4:	1d 32       	cpi	r17, 0x2D	; 45
    22c6:	49 f4       	brne	.+18     	; 0x22da <atol+0x34>
    22c8:	68 94       	set
    22ca:	06 c0       	rjmp	.+12     	; 0x22d8 <atol+0x32>
    22cc:	0e 94 c5 11 	call	0x238a	; 0x238a <__mulsi_const_10>
    22d0:	61 0f       	add	r22, r17
    22d2:	71 1d       	adc	r23, r1
    22d4:	81 1d       	adc	r24, r1
    22d6:	91 1d       	adc	r25, r1
    22d8:	11 91       	ld	r17, Z+
    22da:	10 53       	subi	r17, 0x30	; 48
    22dc:	1a 30       	cpi	r17, 0x0A	; 10
    22de:	b0 f3       	brcs	.-20     	; 0x22cc <atol+0x26>
    22e0:	3e f4       	brtc	.+14     	; 0x22f0 <atol+0x4a>
    22e2:	90 95       	com	r25
    22e4:	80 95       	com	r24
    22e6:	70 95       	com	r23
    22e8:	61 95       	neg	r22
    22ea:	7f 4f       	sbci	r23, 0xFF	; 255
    22ec:	8f 4f       	sbci	r24, 0xFF	; 255
    22ee:	9f 4f       	sbci	r25, 0xFF	; 255
    22f0:	1f 91       	pop	r17
    22f2:	08 95       	ret

000022f4 <strtok>:
    22f4:	4a eb       	ldi	r20, 0xBA	; 186
    22f6:	51 e0       	ldi	r21, 0x01	; 1
    22f8:	0e 94 8f 11 	call	0x231e	; 0x231e <strtok_r>
    22fc:	08 95       	ret

000022fe <memset>:
    22fe:	dc 01       	movw	r26, r24
    2300:	01 c0       	rjmp	.+2      	; 0x2304 <memset+0x6>
    2302:	6d 93       	st	X+, r22
    2304:	41 50       	subi	r20, 0x01	; 1
    2306:	50 40       	sbci	r21, 0x00	; 0
    2308:	e0 f7       	brcc	.-8      	; 0x2302 <memset+0x4>
    230a:	08 95       	ret

0000230c <strcmp>:
    230c:	fb 01       	movw	r30, r22
    230e:	dc 01       	movw	r26, r24
    2310:	8d 91       	ld	r24, X+
    2312:	01 90       	ld	r0, Z+
    2314:	80 19       	sub	r24, r0
    2316:	01 10       	cpse	r0, r1
    2318:	d9 f3       	breq	.-10     	; 0x2310 <strcmp+0x4>
    231a:	99 0b       	sbc	r25, r25
    231c:	08 95       	ret

0000231e <strtok_r>:
    231e:	fa 01       	movw	r30, r20
    2320:	a1 91       	ld	r26, Z+
    2322:	b0 81       	ld	r27, Z
    2324:	00 97       	sbiw	r24, 0x00	; 0
    2326:	19 f4       	brne	.+6      	; 0x232e <strtok_r+0x10>
    2328:	10 97       	sbiw	r26, 0x00	; 0
    232a:	e1 f0       	breq	.+56     	; 0x2364 <strtok_r+0x46>
    232c:	cd 01       	movw	r24, r26
    232e:	dc 01       	movw	r26, r24
    2330:	cd 01       	movw	r24, r26
    2332:	0d 90       	ld	r0, X+
    2334:	00 20       	and	r0, r0
    2336:	11 f4       	brne	.+4      	; 0x233c <strtok_r+0x1e>
    2338:	c0 01       	movw	r24, r0
    233a:	13 c0       	rjmp	.+38     	; 0x2362 <strtok_r+0x44>
    233c:	fb 01       	movw	r30, r22
    233e:	21 91       	ld	r18, Z+
    2340:	22 23       	and	r18, r18
    2342:	19 f0       	breq	.+6      	; 0x234a <strtok_r+0x2c>
    2344:	20 15       	cp	r18, r0
    2346:	d9 f7       	brne	.-10     	; 0x233e <strtok_r+0x20>
    2348:	f3 cf       	rjmp	.-26     	; 0x2330 <strtok_r+0x12>
    234a:	fb 01       	movw	r30, r22
    234c:	21 91       	ld	r18, Z+
    234e:	20 15       	cp	r18, r0
    2350:	19 f4       	brne	.+6      	; 0x2358 <strtok_r+0x3a>
    2352:	1e 92       	st	-X, r1
    2354:	11 96       	adiw	r26, 0x01	; 1
    2356:	06 c0       	rjmp	.+12     	; 0x2364 <strtok_r+0x46>
    2358:	22 23       	and	r18, r18
    235a:	c1 f7       	brne	.-16     	; 0x234c <strtok_r+0x2e>
    235c:	0d 90       	ld	r0, X+
    235e:	00 20       	and	r0, r0
    2360:	a1 f7       	brne	.-24     	; 0x234a <strtok_r+0x2c>
    2362:	d0 01       	movw	r26, r0
    2364:	fa 01       	movw	r30, r20
    2366:	a1 93       	st	Z+, r26
    2368:	b0 83       	st	Z, r27
    236a:	08 95       	ret

0000236c <__ltoa_ncheck>:
    236c:	bb 27       	eor	r27, r27
    236e:	2a 30       	cpi	r18, 0x0A	; 10
    2370:	51 f4       	brne	.+20     	; 0x2386 <__ltoa_ncheck+0x1a>
    2372:	99 23       	and	r25, r25
    2374:	42 f4       	brpl	.+16     	; 0x2386 <__ltoa_ncheck+0x1a>
    2376:	bd e2       	ldi	r27, 0x2D	; 45
    2378:	90 95       	com	r25
    237a:	80 95       	com	r24
    237c:	70 95       	com	r23
    237e:	61 95       	neg	r22
    2380:	7f 4f       	sbci	r23, 0xFF	; 255
    2382:	8f 4f       	sbci	r24, 0xFF	; 255
    2384:	9f 4f       	sbci	r25, 0xFF	; 255
    2386:	0c 94 db 11 	jmp	0x23b6	; 0x23b6 <__ultoa_common>

0000238a <__mulsi_const_10>:
    238a:	59 2f       	mov	r21, r25
    238c:	48 2f       	mov	r20, r24
    238e:	37 2f       	mov	r19, r23
    2390:	26 2f       	mov	r18, r22
    2392:	66 0f       	add	r22, r22
    2394:	77 1f       	adc	r23, r23
    2396:	88 1f       	adc	r24, r24
    2398:	99 1f       	adc	r25, r25
    239a:	66 0f       	add	r22, r22
    239c:	77 1f       	adc	r23, r23
    239e:	88 1f       	adc	r24, r24
    23a0:	99 1f       	adc	r25, r25
    23a2:	62 0f       	add	r22, r18
    23a4:	73 1f       	adc	r23, r19
    23a6:	84 1f       	adc	r24, r20
    23a8:	95 1f       	adc	r25, r21
    23aa:	66 0f       	add	r22, r22
    23ac:	77 1f       	adc	r23, r23
    23ae:	88 1f       	adc	r24, r24
    23b0:	99 1f       	adc	r25, r25
    23b2:	08 95       	ret

000023b4 <__ultoa_ncheck>:
    23b4:	bb 27       	eor	r27, r27

000023b6 <__ultoa_common>:
    23b6:	fa 01       	movw	r30, r20
    23b8:	a6 2f       	mov	r26, r22
    23ba:	62 17       	cp	r22, r18
    23bc:	71 05       	cpc	r23, r1
    23be:	81 05       	cpc	r24, r1
    23c0:	91 05       	cpc	r25, r1
    23c2:	33 0b       	sbc	r19, r19
    23c4:	30 fb       	bst	r19, 0
    23c6:	66 f0       	brts	.+24     	; 0x23e0 <__ultoa_common+0x2a>
    23c8:	aa 27       	eor	r26, r26
    23ca:	66 0f       	add	r22, r22
    23cc:	77 1f       	adc	r23, r23
    23ce:	88 1f       	adc	r24, r24
    23d0:	99 1f       	adc	r25, r25
    23d2:	aa 1f       	adc	r26, r26
    23d4:	a2 17       	cp	r26, r18
    23d6:	10 f0       	brcs	.+4      	; 0x23dc <__ultoa_common+0x26>
    23d8:	a2 1b       	sub	r26, r18
    23da:	63 95       	inc	r22
    23dc:	38 50       	subi	r19, 0x08	; 8
    23de:	a9 f7       	brne	.-22     	; 0x23ca <__ultoa_common+0x14>
    23e0:	a0 5d       	subi	r26, 0xD0	; 208
    23e2:	aa 33       	cpi	r26, 0x3A	; 58
    23e4:	08 f0       	brcs	.+2      	; 0x23e8 <__ultoa_common+0x32>
    23e6:	a9 5d       	subi	r26, 0xD9	; 217
    23e8:	a1 93       	st	Z+, r26
    23ea:	36 f7       	brtc	.-52     	; 0x23b8 <__ultoa_common+0x2>
    23ec:	b1 11       	cpse	r27, r1
    23ee:	b1 93       	st	Z+, r27
    23f0:	10 82       	st	Z, r1
    23f2:	ca 01       	movw	r24, r20
    23f4:	0c 94 fc 11 	jmp	0x23f8	; 0x23f8 <strrev>

000023f8 <strrev>:
    23f8:	dc 01       	movw	r26, r24
    23fa:	fc 01       	movw	r30, r24
    23fc:	67 2f       	mov	r22, r23
    23fe:	71 91       	ld	r23, Z+
    2400:	77 23       	and	r23, r23
    2402:	e1 f7       	brne	.-8      	; 0x23fc <strrev+0x4>
    2404:	32 97       	sbiw	r30, 0x02	; 2
    2406:	04 c0       	rjmp	.+8      	; 0x2410 <strrev+0x18>
    2408:	7c 91       	ld	r23, X
    240a:	6d 93       	st	X+, r22
    240c:	70 83       	st	Z, r23
    240e:	62 91       	ld	r22, -Z
    2410:	ae 17       	cp	r26, r30
    2412:	bf 07       	cpc	r27, r31
    2414:	c8 f3       	brcs	.-14     	; 0x2408 <strrev+0x10>
    2416:	08 95       	ret

00002418 <_exit>:
    2418:	f8 94       	cli

0000241a <__stop_program>:
    241a:	ff cf       	rjmp	.-2      	; 0x241a <__stop_program>
